
ctarget:     file format elf64-x86-64


Disassembly of section .init:

0000000000400bf0 <_init>:
  400bf0:	f3 0f 1e fa          	endbr64 
  400bf4:	48 83 ec 08          	sub    $0x8,%rsp
  400bf8:	48 8b 05 f1 33 20 00 	mov    0x2033f1(%rip),%rax        # 603ff0 <__gmon_start__@Base>
  400bff:	48 85 c0             	test   %rax,%rax
  400c02:	74 02                	je     400c06 <_init+0x16>
  400c04:	ff d0                	callq  *%rax
  400c06:	48 83 c4 08          	add    $0x8,%rsp
  400c0a:	c3                   	retq   

Disassembly of section .plt:

0000000000400c10 <.plt>:
  400c10:	ff 35 f2 33 20 00    	pushq  0x2033f2(%rip)        # 604008 <_GLOBAL_OFFSET_TABLE_+0x8>
  400c16:	ff 25 f4 33 20 00    	jmpq   *0x2033f4(%rip)        # 604010 <_GLOBAL_OFFSET_TABLE_+0x10>
  400c1c:	0f 1f 40 00          	nopl   0x0(%rax)

0000000000400c20 <strcasecmp@plt>:
  400c20:	ff 25 f2 33 20 00    	jmpq   *0x2033f2(%rip)        # 604018 <strcasecmp@GLIBC_2.2.5>
  400c26:	68 00 00 00 00       	pushq  $0x0
  400c2b:	e9 e0 ff ff ff       	jmpq   400c10 <.plt>

0000000000400c30 <__errno_location@plt>:
  400c30:	ff 25 ea 33 20 00    	jmpq   *0x2033ea(%rip)        # 604020 <__errno_location@GLIBC_2.2.5>
  400c36:	68 01 00 00 00       	pushq  $0x1
  400c3b:	e9 d0 ff ff ff       	jmpq   400c10 <.plt>

0000000000400c40 <srandom@plt>:
  400c40:	ff 25 e2 33 20 00    	jmpq   *0x2033e2(%rip)        # 604028 <srandom@GLIBC_2.2.5>
  400c46:	68 02 00 00 00       	pushq  $0x2
  400c4b:	e9 c0 ff ff ff       	jmpq   400c10 <.plt>

0000000000400c50 <strncmp@plt>:
  400c50:	ff 25 da 33 20 00    	jmpq   *0x2033da(%rip)        # 604030 <strncmp@GLIBC_2.2.5>
  400c56:	68 03 00 00 00       	pushq  $0x3
  400c5b:	e9 b0 ff ff ff       	jmpq   400c10 <.plt>

0000000000400c60 <strcpy@plt>:
  400c60:	ff 25 d2 33 20 00    	jmpq   *0x2033d2(%rip)        # 604038 <strcpy@GLIBC_2.2.5>
  400c66:	68 04 00 00 00       	pushq  $0x4
  400c6b:	e9 a0 ff ff ff       	jmpq   400c10 <.plt>

0000000000400c70 <puts@plt>:
  400c70:	ff 25 ca 33 20 00    	jmpq   *0x2033ca(%rip)        # 604040 <puts@GLIBC_2.2.5>
  400c76:	68 05 00 00 00       	pushq  $0x5
  400c7b:	e9 90 ff ff ff       	jmpq   400c10 <.plt>

0000000000400c80 <write@plt>:
  400c80:	ff 25 c2 33 20 00    	jmpq   *0x2033c2(%rip)        # 604048 <write@GLIBC_2.2.5>
  400c86:	68 06 00 00 00       	pushq  $0x6
  400c8b:	e9 80 ff ff ff       	jmpq   400c10 <.plt>

0000000000400c90 <mmap@plt>:
  400c90:	ff 25 ba 33 20 00    	jmpq   *0x2033ba(%rip)        # 604050 <mmap@GLIBC_2.2.5>
  400c96:	68 07 00 00 00       	pushq  $0x7
  400c9b:	e9 70 ff ff ff       	jmpq   400c10 <.plt>

0000000000400ca0 <printf@plt>:
  400ca0:	ff 25 b2 33 20 00    	jmpq   *0x2033b2(%rip)        # 604058 <printf@GLIBC_2.2.5>
  400ca6:	68 08 00 00 00       	pushq  $0x8
  400cab:	e9 60 ff ff ff       	jmpq   400c10 <.plt>

0000000000400cb0 <memset@plt>:
  400cb0:	ff 25 aa 33 20 00    	jmpq   *0x2033aa(%rip)        # 604060 <memset@GLIBC_2.2.5>
  400cb6:	68 09 00 00 00       	pushq  $0x9
  400cbb:	e9 50 ff ff ff       	jmpq   400c10 <.plt>

0000000000400cc0 <alarm@plt>:
  400cc0:	ff 25 a2 33 20 00    	jmpq   *0x2033a2(%rip)        # 604068 <alarm@GLIBC_2.2.5>
  400cc6:	68 0a 00 00 00       	pushq  $0xa
  400ccb:	e9 40 ff ff ff       	jmpq   400c10 <.plt>

0000000000400cd0 <close@plt>:
  400cd0:	ff 25 9a 33 20 00    	jmpq   *0x20339a(%rip)        # 604070 <close@GLIBC_2.2.5>
  400cd6:	68 0b 00 00 00       	pushq  $0xb
  400cdb:	e9 30 ff ff ff       	jmpq   400c10 <.plt>

0000000000400ce0 <read@plt>:
  400ce0:	ff 25 92 33 20 00    	jmpq   *0x203392(%rip)        # 604078 <read@GLIBC_2.2.5>
  400ce6:	68 0c 00 00 00       	pushq  $0xc
  400ceb:	e9 20 ff ff ff       	jmpq   400c10 <.plt>

0000000000400cf0 <signal@plt>:
  400cf0:	ff 25 8a 33 20 00    	jmpq   *0x20338a(%rip)        # 604080 <signal@GLIBC_2.2.5>
  400cf6:	68 0d 00 00 00       	pushq  $0xd
  400cfb:	e9 10 ff ff ff       	jmpq   400c10 <.plt>

0000000000400d00 <gethostbyname@plt>:
  400d00:	ff 25 82 33 20 00    	jmpq   *0x203382(%rip)        # 604088 <gethostbyname@GLIBC_2.2.5>
  400d06:	68 0e 00 00 00       	pushq  $0xe
  400d0b:	e9 00 ff ff ff       	jmpq   400c10 <.plt>

0000000000400d10 <fprintf@plt>:
  400d10:	ff 25 7a 33 20 00    	jmpq   *0x20337a(%rip)        # 604090 <fprintf@GLIBC_2.2.5>
  400d16:	68 0f 00 00 00       	pushq  $0xf
  400d1b:	e9 f0 fe ff ff       	jmpq   400c10 <.plt>

0000000000400d20 <strtol@plt>:
  400d20:	ff 25 72 33 20 00    	jmpq   *0x203372(%rip)        # 604098 <strtol@GLIBC_2.2.5>
  400d26:	68 10 00 00 00       	pushq  $0x10
  400d2b:	e9 e0 fe ff ff       	jmpq   400c10 <.plt>

0000000000400d30 <time@plt>:
  400d30:	ff 25 6a 33 20 00    	jmpq   *0x20336a(%rip)        # 6040a0 <time@GLIBC_2.2.5>
  400d36:	68 11 00 00 00       	pushq  $0x11
  400d3b:	e9 d0 fe ff ff       	jmpq   400c10 <.plt>

0000000000400d40 <random@plt>:
  400d40:	ff 25 62 33 20 00    	jmpq   *0x203362(%rip)        # 6040a8 <random@GLIBC_2.2.5>
  400d46:	68 12 00 00 00       	pushq  $0x12
  400d4b:	e9 c0 fe ff ff       	jmpq   400c10 <.plt>

0000000000400d50 <__isoc99_sscanf@plt>:
  400d50:	ff 25 5a 33 20 00    	jmpq   *0x20335a(%rip)        # 6040b0 <__isoc99_sscanf@GLIBC_2.7>
  400d56:	68 13 00 00 00       	pushq  $0x13
  400d5b:	e9 b0 fe ff ff       	jmpq   400c10 <.plt>

0000000000400d60 <munmap@plt>:
  400d60:	ff 25 52 33 20 00    	jmpq   *0x203352(%rip)        # 6040b8 <munmap@GLIBC_2.2.5>
  400d66:	68 14 00 00 00       	pushq  $0x14
  400d6b:	e9 a0 fe ff ff       	jmpq   400c10 <.plt>

0000000000400d70 <memmove@plt>:
  400d70:	ff 25 4a 33 20 00    	jmpq   *0x20334a(%rip)        # 6040c0 <memmove@GLIBC_2.2.5>
  400d76:	68 15 00 00 00       	pushq  $0x15
  400d7b:	e9 90 fe ff ff       	jmpq   400c10 <.plt>

0000000000400d80 <fopen@plt>:
  400d80:	ff 25 42 33 20 00    	jmpq   *0x203342(%rip)        # 6040c8 <fopen@GLIBC_2.2.5>
  400d86:	68 16 00 00 00       	pushq  $0x16
  400d8b:	e9 80 fe ff ff       	jmpq   400c10 <.plt>

0000000000400d90 <getopt@plt>:
  400d90:	ff 25 3a 33 20 00    	jmpq   *0x20333a(%rip)        # 6040d0 <getopt@GLIBC_2.2.5>
  400d96:	68 17 00 00 00       	pushq  $0x17
  400d9b:	e9 70 fe ff ff       	jmpq   400c10 <.plt>

0000000000400da0 <strtoul@plt>:
  400da0:	ff 25 32 33 20 00    	jmpq   *0x203332(%rip)        # 6040d8 <strtoul@GLIBC_2.2.5>
  400da6:	68 18 00 00 00       	pushq  $0x18
  400dab:	e9 60 fe ff ff       	jmpq   400c10 <.plt>

0000000000400db0 <gethostname@plt>:
  400db0:	ff 25 2a 33 20 00    	jmpq   *0x20332a(%rip)        # 6040e0 <gethostname@GLIBC_2.2.5>
  400db6:	68 19 00 00 00       	pushq  $0x19
  400dbb:	e9 50 fe ff ff       	jmpq   400c10 <.plt>

0000000000400dc0 <sprintf@plt>:
  400dc0:	ff 25 22 33 20 00    	jmpq   *0x203322(%rip)        # 6040e8 <sprintf@GLIBC_2.2.5>
  400dc6:	68 1a 00 00 00       	pushq  $0x1a
  400dcb:	e9 40 fe ff ff       	jmpq   400c10 <.plt>

0000000000400dd0 <exit@plt>:
  400dd0:	ff 25 1a 33 20 00    	jmpq   *0x20331a(%rip)        # 6040f0 <exit@GLIBC_2.2.5>
  400dd6:	68 1b 00 00 00       	pushq  $0x1b
  400ddb:	e9 30 fe ff ff       	jmpq   400c10 <.plt>

0000000000400de0 <connect@plt>:
  400de0:	ff 25 12 33 20 00    	jmpq   *0x203312(%rip)        # 6040f8 <connect@GLIBC_2.2.5>
  400de6:	68 1c 00 00 00       	pushq  $0x1c
  400deb:	e9 20 fe ff ff       	jmpq   400c10 <.plt>

0000000000400df0 <getc@plt>:
  400df0:	ff 25 0a 33 20 00    	jmpq   *0x20330a(%rip)        # 604100 <getc@GLIBC_2.2.5>
  400df6:	68 1d 00 00 00       	pushq  $0x1d
  400dfb:	e9 10 fe ff ff       	jmpq   400c10 <.plt>

0000000000400e00 <socket@plt>:
  400e00:	ff 25 02 33 20 00    	jmpq   *0x203302(%rip)        # 604108 <socket@GLIBC_2.2.5>
  400e06:	68 1e 00 00 00       	pushq  $0x1e
  400e0b:	e9 00 fe ff ff       	jmpq   400c10 <.plt>

Disassembly of section .text:

0000000000400e10 <_start>:
  400e10:	f3 0f 1e fa          	endbr64 
  400e14:	31 ed                	xor    %ebp,%ebp
  400e16:	49 89 d1             	mov    %rdx,%r9
  400e19:	5e                   	pop    %rsi
  400e1a:	48 89 e2             	mov    %rsp,%rdx
  400e1d:	48 83 e4 f0          	and    $0xfffffffffffffff0,%rsp
  400e21:	50                   	push   %rax
  400e22:	54                   	push   %rsp
  400e23:	49 c7 c0 00 2c 40 00 	mov    $0x402c00,%r8
  400e2a:	48 c7 c1 90 2b 40 00 	mov    $0x402b90,%rcx
  400e31:	48 c7 c7 bb 10 40 00 	mov    $0x4010bb,%rdi
  400e38:	ff 15 aa 31 20 00    	callq  *0x2031aa(%rip)        # 603fe8 <__libc_start_main@GLIBC_2.2.5>
  400e3e:	f4                   	hlt    

0000000000400e3f <.annobin_init.c>:
  400e3f:	90                   	nop

0000000000400e40 <_dl_relocate_static_pie>:
  400e40:	f3 0f 1e fa          	endbr64 
  400e44:	c3                   	retq   

0000000000400e45 <.annobin__dl_relocate_static_pie.end>:
  400e45:	66 2e 0f 1f 84 00 00 	nopw   %cs:0x0(%rax,%rax,1)
  400e4c:	00 00 00 
  400e4f:	90                   	nop

0000000000400e50 <deregister_tm_clones>:
  400e50:	48 8d 3d 39 36 20 00 	lea    0x203639(%rip),%rdi        # 604490 <__TMC_END__>
  400e57:	48 8d 05 32 36 20 00 	lea    0x203632(%rip),%rax        # 604490 <__TMC_END__>
  400e5e:	48 39 f8             	cmp    %rdi,%rax
  400e61:	74 15                	je     400e78 <deregister_tm_clones+0x28>
  400e63:	48 8b 05 76 31 20 00 	mov    0x203176(%rip),%rax        # 603fe0 <_ITM_deregisterTMCloneTable@Base>
  400e6a:	48 85 c0             	test   %rax,%rax
  400e6d:	74 09                	je     400e78 <deregister_tm_clones+0x28>
  400e6f:	ff e0                	jmpq   *%rax
  400e71:	0f 1f 80 00 00 00 00 	nopl   0x0(%rax)
  400e78:	c3                   	retq   
  400e79:	0f 1f 80 00 00 00 00 	nopl   0x0(%rax)

0000000000400e80 <register_tm_clones>:
  400e80:	48 8d 3d 09 36 20 00 	lea    0x203609(%rip),%rdi        # 604490 <__TMC_END__>
  400e87:	48 8d 35 02 36 20 00 	lea    0x203602(%rip),%rsi        # 604490 <__TMC_END__>
  400e8e:	48 29 fe             	sub    %rdi,%rsi
  400e91:	48 c1 fe 03          	sar    $0x3,%rsi
  400e95:	48 89 f0             	mov    %rsi,%rax
  400e98:	48 c1 e8 3f          	shr    $0x3f,%rax
  400e9c:	48 01 c6             	add    %rax,%rsi
  400e9f:	48 d1 fe             	sar    %rsi
  400ea2:	74 14                	je     400eb8 <register_tm_clones+0x38>
  400ea4:	48 8b 05 4d 31 20 00 	mov    0x20314d(%rip),%rax        # 603ff8 <_ITM_registerTMCloneTable@Base>
  400eab:	48 85 c0             	test   %rax,%rax
  400eae:	74 08                	je     400eb8 <register_tm_clones+0x38>
  400eb0:	ff e0                	jmpq   *%rax
  400eb2:	66 0f 1f 44 00 00    	nopw   0x0(%rax,%rax,1)
  400eb8:	c3                   	retq   
  400eb9:	0f 1f 80 00 00 00 00 	nopl   0x0(%rax)

0000000000400ec0 <__do_global_dtors_aux>:
  400ec0:	f3 0f 1e fa          	endbr64 
  400ec4:	80 3d fd 35 20 00 00 	cmpb   $0x0,0x2035fd(%rip)        # 6044c8 <completed.7303>
  400ecb:	75 13                	jne    400ee0 <__do_global_dtors_aux+0x20>
  400ecd:	55                   	push   %rbp
  400ece:	48 89 e5             	mov    %rsp,%rbp
  400ed1:	e8 7a ff ff ff       	callq  400e50 <deregister_tm_clones>
  400ed6:	c6 05 eb 35 20 00 01 	movb   $0x1,0x2035eb(%rip)        # 6044c8 <completed.7303>
  400edd:	5d                   	pop    %rbp
  400ede:	c3                   	retq   
  400edf:	90                   	nop
  400ee0:	c3                   	retq   
  400ee1:	66 66 2e 0f 1f 84 00 	data16 nopw %cs:0x0(%rax,%rax,1)
  400ee8:	00 00 00 00 
  400eec:	0f 1f 40 00          	nopl   0x0(%rax)

0000000000400ef0 <frame_dummy>:
  400ef0:	f3 0f 1e fa          	endbr64 
  400ef4:	eb 8a                	jmp    400e80 <register_tm_clones>

0000000000400ef6 <usage>:
  400ef6:	48 83 ec 08          	sub    $0x8,%rsp
  400efa:	48 89 fe             	mov    %rdi,%rsi
  400efd:	83 3d 04 36 20 00 00 	cmpl   $0x0,0x203604(%rip)        # 604508 <is_checker>
  400f04:	74 41                	je     400f47 <usage+0x51>
  400f06:	bf 30 2c 40 00       	mov    $0x402c30,%edi
  400f0b:	b8 00 00 00 00       	mov    $0x0,%eax
  400f10:	e8 8b fd ff ff       	callq  400ca0 <printf@plt>
  400f15:	bf 68 2c 40 00       	mov    $0x402c68,%edi
  400f1a:	e8 51 fd ff ff       	callq  400c70 <puts@plt>
  400f1f:	bf e0 2d 40 00       	mov    $0x402de0,%edi
  400f24:	e8 47 fd ff ff       	callq  400c70 <puts@plt>
  400f29:	bf 90 2c 40 00       	mov    $0x402c90,%edi
  400f2e:	e8 3d fd ff ff       	callq  400c70 <puts@plt>
  400f33:	bf fa 2d 40 00       	mov    $0x402dfa,%edi
  400f38:	e8 33 fd ff ff       	callq  400c70 <puts@plt>
  400f3d:	bf 00 00 00 00       	mov    $0x0,%edi
  400f42:	e8 89 fe ff ff       	callq  400dd0 <exit@plt>
  400f47:	bf 16 2e 40 00       	mov    $0x402e16,%edi
  400f4c:	b8 00 00 00 00       	mov    $0x0,%eax
  400f51:	e8 4a fd ff ff       	callq  400ca0 <printf@plt>
  400f56:	bf b8 2c 40 00       	mov    $0x402cb8,%edi
  400f5b:	e8 10 fd ff ff       	callq  400c70 <puts@plt>
  400f60:	bf e0 2c 40 00       	mov    $0x402ce0,%edi
  400f65:	e8 06 fd ff ff       	callq  400c70 <puts@plt>
  400f6a:	bf 34 2e 40 00       	mov    $0x402e34,%edi
  400f6f:	e8 fc fc ff ff       	callq  400c70 <puts@plt>
  400f74:	eb c7                	jmp    400f3d <usage+0x47>

0000000000400f76 <initialize_target>:
  400f76:	55                   	push   %rbp
  400f77:	53                   	push   %rbx
  400f78:	48 81 ec 08 21 00 00 	sub    $0x2108,%rsp
  400f7f:	89 f5                	mov    %esi,%ebp
  400f81:	89 3d 71 35 20 00    	mov    %edi,0x203571(%rip)        # 6044f8 <check_level>
  400f87:	8b 3d bb 31 20 00    	mov    0x2031bb(%rip),%edi        # 604148 <target_id>
  400f8d:	e8 d6 1b 00 00       	callq  402b68 <gencookie>
  400f92:	89 05 6c 35 20 00    	mov    %eax,0x20356c(%rip)        # 604504 <cookie>
  400f98:	89 c7                	mov    %eax,%edi
  400f9a:	e8 c9 1b 00 00       	callq  402b68 <gencookie>
  400f9f:	89 05 5b 35 20 00    	mov    %eax,0x20355b(%rip)        # 604500 <authkey>
  400fa5:	8b 05 9d 31 20 00    	mov    0x20319d(%rip),%eax        # 604148 <target_id>
  400fab:	8d 78 01             	lea    0x1(%rax),%edi
  400fae:	e8 8d fc ff ff       	callq  400c40 <srandom@plt>
  400fb3:	e8 88 fd ff ff       	callq  400d40 <random@plt>
  400fb8:	89 c7                	mov    %eax,%edi
  400fba:	e8 b8 02 00 00       	callq  401277 <scramble>
  400fbf:	89 c3                	mov    %eax,%ebx
  400fc1:	b8 00 00 00 00       	mov    $0x0,%eax
  400fc6:	85 ed                	test   %ebp,%ebp
  400fc8:	75 38                	jne    401002 <initialize_target+0x8c>
  400fca:	01 d8                	add    %ebx,%eax
  400fcc:	0f b7 c0             	movzwl %ax,%eax
  400fcf:	8d 04 c5 00 01 00 00 	lea    0x100(,%rax,8),%eax
  400fd6:	89 c0                	mov    %eax,%eax
  400fd8:	48 89 05 a1 34 20 00 	mov    %rax,0x2034a1(%rip)        # 604480 <buf_offset>
  400fdf:	c6 05 42 41 20 00 63 	movb   $0x63,0x204142(%rip)        # 605128 <target_prefix>
  400fe6:	83 3d 9b 34 20 00 00 	cmpl   $0x0,0x20349b(%rip)        # 604488 <notify>
  400fed:	74 09                	je     400ff8 <initialize_target+0x82>
  400fef:	83 3d 12 35 20 00 00 	cmpl   $0x0,0x203512(%rip)        # 604508 <is_checker>
  400ff6:	74 22                	je     40101a <initialize_target+0xa4>
  400ff8:	48 81 c4 08 21 00 00 	add    $0x2108,%rsp
  400fff:	5b                   	pop    %rbx
  401000:	5d                   	pop    %rbp
  401001:	c3                   	retq   
  401002:	bf 00 00 00 00       	mov    $0x0,%edi
  401007:	e8 24 fd ff ff       	callq  400d30 <time@plt>
  40100c:	89 c7                	mov    %eax,%edi
  40100e:	e8 2d fc ff ff       	callq  400c40 <srandom@plt>
  401013:	e8 28 fd ff ff       	callq  400d40 <random@plt>
  401018:	eb b0                	jmp    400fca <initialize_target+0x54>
  40101a:	be 00 01 00 00       	mov    $0x100,%esi
  40101f:	48 89 e7             	mov    %rsp,%rdi
  401022:	e8 89 fd ff ff       	callq  400db0 <gethostname@plt>
  401027:	85 c0                	test   %eax,%eax
  401029:	75 46                	jne    401071 <initialize_target+0xfb>
  40102b:	48 8b 3d 2e 31 20 00 	mov    0x20312e(%rip),%rdi        # 604160 <host_table>
  401032:	bb 68 41 60 00       	mov    $0x604168,%ebx
  401037:	48 85 ff             	test   %rdi,%rdi
  40103a:	74 19                	je     401055 <initialize_target+0xdf>
  40103c:	48 89 e6             	mov    %rsp,%rsi
  40103f:	e8 dc fb ff ff       	callq  400c20 <strcasecmp@plt>
  401044:	85 c0                	test   %eax,%eax
  401046:	74 3d                	je     401085 <initialize_target+0x10f>
  401048:	48 83 c3 08          	add    $0x8,%rbx
  40104c:	48 8b 7b f8          	mov    -0x8(%rbx),%rdi
  401050:	48 85 ff             	test   %rdi,%rdi
  401053:	75 e7                	jne    40103c <initialize_target+0xc6>
  401055:	48 89 e6             	mov    %rsp,%rsi
  401058:	bf 70 2d 40 00       	mov    $0x402d70,%edi
  40105d:	b8 00 00 00 00       	mov    $0x0,%eax
  401062:	e8 39 fc ff ff       	callq  400ca0 <printf@plt>
  401067:	bf 08 00 00 00       	mov    $0x8,%edi
  40106c:	e8 5f fd ff ff       	callq  400dd0 <exit@plt>
  401071:	bf 10 2d 40 00       	mov    $0x402d10,%edi
  401076:	e8 f5 fb ff ff       	callq  400c70 <puts@plt>
  40107b:	bf 08 00 00 00       	mov    $0x8,%edi
  401080:	e8 4b fd ff ff       	callq  400dd0 <exit@plt>
  401085:	48 8d bc 24 00 01 00 	lea    0x100(%rsp),%rdi
  40108c:	00 
  40108d:	e8 5a 18 00 00       	callq  4028ec <init_driver>
  401092:	85 c0                	test   %eax,%eax
  401094:	0f 89 5e ff ff ff    	jns    400ff8 <initialize_target+0x82>
  40109a:	48 8d b4 24 00 01 00 	lea    0x100(%rsp),%rsi
  4010a1:	00 
  4010a2:	bf 48 2d 40 00       	mov    $0x402d48,%edi
  4010a7:	b8 00 00 00 00       	mov    $0x0,%eax
  4010ac:	e8 ef fb ff ff       	callq  400ca0 <printf@plt>
  4010b1:	bf 08 00 00 00       	mov    $0x8,%edi
  4010b6:	e8 15 fd ff ff       	callq  400dd0 <exit@plt>

00000000004010bb <main>:
  4010bb:	41 56                	push   %r14
  4010bd:	41 55                	push   %r13
  4010bf:	41 54                	push   %r12
  4010c1:	55                   	push   %rbp
  4010c2:	53                   	push   %rbx
  4010c3:	41 89 fc             	mov    %edi,%r12d
  4010c6:	48 89 f5             	mov    %rsi,%rbp
  4010c9:	be 76 1d 40 00       	mov    $0x401d76,%esi
  4010ce:	bf 0b 00 00 00       	mov    $0xb,%edi
  4010d3:	e8 18 fc ff ff       	callq  400cf0 <signal@plt>
  4010d8:	be 28 1d 40 00       	mov    $0x401d28,%esi
  4010dd:	bf 07 00 00 00       	mov    $0x7,%edi
  4010e2:	e8 09 fc ff ff       	callq  400cf0 <signal@plt>
  4010e7:	be c4 1d 40 00       	mov    $0x401dc4,%esi
  4010ec:	bf 04 00 00 00       	mov    $0x4,%edi
  4010f1:	e8 fa fb ff ff       	callq  400cf0 <signal@plt>
  4010f6:	bb 4d 2e 40 00       	mov    $0x402e4d,%ebx
  4010fb:	83 3d 06 34 20 00 00 	cmpl   $0x0,0x203406(%rip)        # 604508 <is_checker>
  401102:	75 1f                	jne    401123 <main+0x68>
  401104:	48 8b 05 95 33 20 00 	mov    0x203395(%rip),%rax        # 6044a0 <stdin@@GLIBC_2.2.5>
  40110b:	48 89 05 de 33 20 00 	mov    %rax,0x2033de(%rip)        # 6044f0 <infile>
  401112:	41 bd 00 00 00 00    	mov    $0x0,%r13d
  401118:	41 be 00 00 00 00    	mov    $0x0,%r14d
  40111e:	e9 81 00 00 00       	jmpq   4011a4 <main+0xe9>
  401123:	be 12 1e 40 00       	mov    $0x401e12,%esi
  401128:	bf 0e 00 00 00       	mov    $0xe,%edi
  40112d:	e8 be fb ff ff       	callq  400cf0 <signal@plt>
  401132:	bf 05 00 00 00       	mov    $0x5,%edi
  401137:	e8 84 fb ff ff       	callq  400cc0 <alarm@plt>
  40113c:	bb 52 2e 40 00       	mov    $0x402e52,%ebx
  401141:	eb c1                	jmp    401104 <main+0x49>
  401143:	48 8b 7d 00          	mov    0x0(%rbp),%rdi
  401147:	e8 aa fd ff ff       	callq  400ef6 <usage>
  40114c:	be f5 32 40 00       	mov    $0x4032f5,%esi
  401151:	48 8b 3d 50 33 20 00 	mov    0x203350(%rip),%rdi        # 6044a8 <optarg@@GLIBC_2.2.5>
  401158:	e8 23 fc ff ff       	callq  400d80 <fopen@plt>
  40115d:	48 89 05 8c 33 20 00 	mov    %rax,0x20338c(%rip)        # 6044f0 <infile>
  401164:	48 85 c0             	test   %rax,%rax
  401167:	75 3b                	jne    4011a4 <main+0xe9>
  401169:	48 8b 15 38 33 20 00 	mov    0x203338(%rip),%rdx        # 6044a8 <optarg@@GLIBC_2.2.5>
  401170:	be 5a 2e 40 00       	mov    $0x402e5a,%esi
  401175:	48 8b 3d 44 33 20 00 	mov    0x203344(%rip),%rdi        # 6044c0 <stderr@@GLIBC_2.2.5>
  40117c:	e8 8f fb ff ff       	callq  400d10 <fprintf@plt>
  401181:	b8 01 00 00 00       	mov    $0x1,%eax
  401186:	e9 c5 00 00 00       	jmpq   401250 <main+0x195>
  40118b:	ba 10 00 00 00       	mov    $0x10,%edx
  401190:	be 00 00 00 00       	mov    $0x0,%esi
  401195:	48 8b 3d 0c 33 20 00 	mov    0x20330c(%rip),%rdi        # 6044a8 <optarg@@GLIBC_2.2.5>
  40119c:	e8 ff fb ff ff       	callq  400da0 <strtoul@plt>
  4011a1:	41 89 c6             	mov    %eax,%r14d
  4011a4:	48 89 da             	mov    %rbx,%rdx
  4011a7:	48 89 ee             	mov    %rbp,%rsi
  4011aa:	44 89 e7             	mov    %r12d,%edi
  4011ad:	e8 de fb ff ff       	callq  400d90 <getopt@plt>
  4011b2:	89 c2                	mov    %eax,%edx
  4011b4:	3c ff                	cmp    $0xff,%al
  4011b6:	74 53                	je     40120b <main+0x150>
  4011b8:	83 e8 61             	sub    $0x61,%eax
  4011bb:	3c 10                	cmp    $0x10,%al
  4011bd:	77 31                	ja     4011f0 <main+0x135>
  4011bf:	0f b6 c0             	movzbl %al,%eax
  4011c2:	ff 24 c5 98 2e 40 00 	jmpq   *0x402e98(,%rax,8)
  4011c9:	ba 0a 00 00 00       	mov    $0xa,%edx
  4011ce:	be 00 00 00 00       	mov    $0x0,%esi
  4011d3:	48 8b 3d ce 32 20 00 	mov    0x2032ce(%rip),%rdi        # 6044a8 <optarg@@GLIBC_2.2.5>
  4011da:	e8 41 fb ff ff       	callq  400d20 <strtol@plt>
  4011df:	41 89 c5             	mov    %eax,%r13d
  4011e2:	eb c0                	jmp    4011a4 <main+0xe9>
  4011e4:	c7 05 9a 32 20 00 00 	movl   $0x0,0x20329a(%rip)        # 604488 <notify>
  4011eb:	00 00 00 
  4011ee:	eb b4                	jmp    4011a4 <main+0xe9>
  4011f0:	0f be f2             	movsbl %dl,%esi
  4011f3:	bf 77 2e 40 00       	mov    $0x402e77,%edi
  4011f8:	b8 00 00 00 00       	mov    $0x0,%eax
  4011fd:	e8 9e fa ff ff       	callq  400ca0 <printf@plt>
  401202:	48 8b 7d 00          	mov    0x0(%rbp),%rdi
  401206:	e8 eb fc ff ff       	callq  400ef6 <usage>
  40120b:	be 00 00 00 00       	mov    $0x0,%esi
  401210:	44 89 ef             	mov    %r13d,%edi
  401213:	e8 5e fd ff ff       	callq  400f76 <initialize_target>
  401218:	83 3d e9 32 20 00 00 	cmpl   $0x0,0x2032e9(%rip)        # 604508 <is_checker>
  40121f:	74 09                	je     40122a <main+0x16f>
  401221:	44 39 35 d8 32 20 00 	cmp    %r14d,0x2032d8(%rip)        # 604500 <authkey>
  401228:	75 2f                	jne    401259 <main+0x19e>
  40122a:	8b 35 d4 32 20 00    	mov    0x2032d4(%rip),%esi        # 604504 <cookie>
  401230:	bf 8a 2e 40 00       	mov    $0x402e8a,%edi
  401235:	b8 00 00 00 00       	mov    $0x0,%eax
  40123a:	e8 61 fa ff ff       	callq  400ca0 <printf@plt>
  40123f:	48 8b 3d 3a 32 20 00 	mov    0x20323a(%rip),%rdi        # 604480 <buf_offset>
  401246:	e8 98 0c 00 00       	callq  401ee3 <stable_launch>
  40124b:	b8 00 00 00 00       	mov    $0x0,%eax
  401250:	5b                   	pop    %rbx
  401251:	5d                   	pop    %rbp
  401252:	41 5c                	pop    %r12
  401254:	41 5d                	pop    %r13
  401256:	41 5e                	pop    %r14
  401258:	c3                   	retq   
  401259:	44 89 f6             	mov    %r14d,%esi
  40125c:	bf b0 2d 40 00       	mov    $0x402db0,%edi
  401261:	b8 00 00 00 00       	mov    $0x0,%eax
  401266:	e8 35 fa ff ff       	callq  400ca0 <printf@plt>
  40126b:	b8 00 00 00 00       	mov    $0x0,%eax
  401270:	e8 1f 07 00 00       	callq  401994 <check_fail>
  401275:	eb b3                	jmp    40122a <main+0x16f>

0000000000401277 <scramble>:
  401277:	b8 00 00 00 00       	mov    $0x0,%eax
  40127c:	89 c2                	mov    %eax,%edx
  40127e:	89 7c 94 d0          	mov    %edi,-0x30(%rsp,%rdx,4)
  401282:	83 c0 01             	add    $0x1,%eax
  401285:	81 c7 0f 56 00 00    	add    $0x560f,%edi
  40128b:	83 f8 0a             	cmp    $0xa,%eax
  40128e:	75 ec                	jne    40127c <scramble+0x5>
  401290:	8b 44 24 d8          	mov    -0x28(%rsp),%eax
  401294:	69 c0 3a cd 00 00    	imul   $0xcd3a,%eax,%eax
  40129a:	89 44 24 d8          	mov    %eax,-0x28(%rsp)
  40129e:	8b 44 24 d4          	mov    -0x2c(%rsp),%eax
  4012a2:	69 c0 60 c5 00 00    	imul   $0xc560,%eax,%eax
  4012a8:	89 44 24 d4          	mov    %eax,-0x2c(%rsp)
  4012ac:	8b 44 24 e8          	mov    -0x18(%rsp),%eax
  4012b0:	69 c0 e3 65 00 00    	imul   $0x65e3,%eax,%eax
  4012b6:	89 44 24 e8          	mov    %eax,-0x18(%rsp)
  4012ba:	8b 44 24 e4          	mov    -0x1c(%rsp),%eax
  4012be:	69 c0 f7 59 00 00    	imul   $0x59f7,%eax,%eax
  4012c4:	89 44 24 e4          	mov    %eax,-0x1c(%rsp)
  4012c8:	8b 44 24 f4          	mov    -0xc(%rsp),%eax
  4012cc:	69 c0 c8 10 00 00    	imul   $0x10c8,%eax,%eax
  4012d2:	89 44 24 f4          	mov    %eax,-0xc(%rsp)
  4012d6:	8b 44 24 d4          	mov    -0x2c(%rsp),%eax
  4012da:	69 c0 99 7d 00 00    	imul   $0x7d99,%eax,%eax
  4012e0:	89 44 24 d4          	mov    %eax,-0x2c(%rsp)
  4012e4:	8b 44 24 f4          	mov    -0xc(%rsp),%eax
  4012e8:	69 c0 44 f7 00 00    	imul   $0xf744,%eax,%eax
  4012ee:	89 44 24 f4          	mov    %eax,-0xc(%rsp)
  4012f2:	8b 44 24 e0          	mov    -0x20(%rsp),%eax
  4012f6:	69 c0 66 03 00 00    	imul   $0x366,%eax,%eax
  4012fc:	89 44 24 e0          	mov    %eax,-0x20(%rsp)
  401300:	8b 44 24 e4          	mov    -0x1c(%rsp),%eax
  401304:	69 c0 5e 47 00 00    	imul   $0x475e,%eax,%eax
  40130a:	89 44 24 e4          	mov    %eax,-0x1c(%rsp)
  40130e:	8b 44 24 e4          	mov    -0x1c(%rsp),%eax
  401312:	69 c0 bb 9a 00 00    	imul   $0x9abb,%eax,%eax
  401318:	89 44 24 e4          	mov    %eax,-0x1c(%rsp)
  40131c:	8b 44 24 e0          	mov    -0x20(%rsp),%eax
  401320:	69 c0 27 aa 00 00    	imul   $0xaa27,%eax,%eax
  401326:	89 44 24 e0          	mov    %eax,-0x20(%rsp)
  40132a:	8b 44 24 d8          	mov    -0x28(%rsp),%eax
  40132e:	69 c0 51 08 00 00    	imul   $0x851,%eax,%eax
  401334:	89 44 24 d8          	mov    %eax,-0x28(%rsp)
  401338:	8b 44 24 e0          	mov    -0x20(%rsp),%eax
  40133c:	69 c0 ca 03 00 00    	imul   $0x3ca,%eax,%eax
  401342:	89 44 24 e0          	mov    %eax,-0x20(%rsp)
  401346:	8b 44 24 f4          	mov    -0xc(%rsp),%eax
  40134a:	69 c0 53 1b 00 00    	imul   $0x1b53,%eax,%eax
  401350:	89 44 24 f4          	mov    %eax,-0xc(%rsp)
  401354:	8b 44 24 e4          	mov    -0x1c(%rsp),%eax
  401358:	69 c0 7d d5 00 00    	imul   $0xd57d,%eax,%eax
  40135e:	89 44 24 e4          	mov    %eax,-0x1c(%rsp)
  401362:	8b 44 24 e8          	mov    -0x18(%rsp),%eax
  401366:	69 c0 c2 f4 00 00    	imul   $0xf4c2,%eax,%eax
  40136c:	89 44 24 e8          	mov    %eax,-0x18(%rsp)
  401370:	8b 44 24 d0          	mov    -0x30(%rsp),%eax
  401374:	69 c0 e5 fb 00 00    	imul   $0xfbe5,%eax,%eax
  40137a:	89 44 24 d0          	mov    %eax,-0x30(%rsp)
  40137e:	8b 44 24 d8          	mov    -0x28(%rsp),%eax
  401382:	69 c0 07 29 00 00    	imul   $0x2907,%eax,%eax
  401388:	89 44 24 d8          	mov    %eax,-0x28(%rsp)
  40138c:	8b 44 24 d0          	mov    -0x30(%rsp),%eax
  401390:	69 c0 6c d8 00 00    	imul   $0xd86c,%eax,%eax
  401396:	89 44 24 d0          	mov    %eax,-0x30(%rsp)
  40139a:	8b 44 24 d4          	mov    -0x2c(%rsp),%eax
  40139e:	69 c0 80 be 00 00    	imul   $0xbe80,%eax,%eax
  4013a4:	89 44 24 d4          	mov    %eax,-0x2c(%rsp)
  4013a8:	8b 44 24 f4          	mov    -0xc(%rsp),%eax
  4013ac:	69 c0 80 22 00 00    	imul   $0x2280,%eax,%eax
  4013b2:	89 44 24 f4          	mov    %eax,-0xc(%rsp)
  4013b6:	8b 44 24 e0          	mov    -0x20(%rsp),%eax
  4013ba:	69 c0 56 28 00 00    	imul   $0x2856,%eax,%eax
  4013c0:	89 44 24 e0          	mov    %eax,-0x20(%rsp)
  4013c4:	8b 44 24 d0          	mov    -0x30(%rsp),%eax
  4013c8:	69 c0 a0 bc 00 00    	imul   $0xbca0,%eax,%eax
  4013ce:	89 44 24 d0          	mov    %eax,-0x30(%rsp)
  4013d2:	8b 44 24 e4          	mov    -0x1c(%rsp),%eax
  4013d6:	69 c0 4a 7c 00 00    	imul   $0x7c4a,%eax,%eax
  4013dc:	89 44 24 e4          	mov    %eax,-0x1c(%rsp)
  4013e0:	8b 44 24 d8          	mov    -0x28(%rsp),%eax
  4013e4:	69 c0 2f 79 00 00    	imul   $0x792f,%eax,%eax
  4013ea:	89 44 24 d8          	mov    %eax,-0x28(%rsp)
  4013ee:	8b 44 24 d8          	mov    -0x28(%rsp),%eax
  4013f2:	69 c0 ca b6 00 00    	imul   $0xb6ca,%eax,%eax
  4013f8:	89 44 24 d8          	mov    %eax,-0x28(%rsp)
  4013fc:	8b 44 24 ec          	mov    -0x14(%rsp),%eax
  401400:	69 c0 8c 0a 00 00    	imul   $0xa8c,%eax,%eax
  401406:	89 44 24 ec          	mov    %eax,-0x14(%rsp)
  40140a:	8b 44 24 f0          	mov    -0x10(%rsp),%eax
  40140e:	69 c0 c2 1d 00 00    	imul   $0x1dc2,%eax,%eax
  401414:	89 44 24 f0          	mov    %eax,-0x10(%rsp)
  401418:	8b 44 24 e4          	mov    -0x1c(%rsp),%eax
  40141c:	69 c0 c5 0d 00 00    	imul   $0xdc5,%eax,%eax
  401422:	89 44 24 e4          	mov    %eax,-0x1c(%rsp)
  401426:	8b 44 24 ec          	mov    -0x14(%rsp),%eax
  40142a:	69 c0 09 ad 00 00    	imul   $0xad09,%eax,%eax
  401430:	89 44 24 ec          	mov    %eax,-0x14(%rsp)
  401434:	8b 44 24 f4          	mov    -0xc(%rsp),%eax
  401438:	69 c0 98 a5 00 00    	imul   $0xa598,%eax,%eax
  40143e:	89 44 24 f4          	mov    %eax,-0xc(%rsp)
  401442:	8b 44 24 f4          	mov    -0xc(%rsp),%eax
  401446:	69 c0 fb 85 00 00    	imul   $0x85fb,%eax,%eax
  40144c:	89 44 24 f4          	mov    %eax,-0xc(%rsp)
  401450:	8b 44 24 d8          	mov    -0x28(%rsp),%eax
  401454:	69 c0 ed 5b 00 00    	imul   $0x5bed,%eax,%eax
  40145a:	89 44 24 d8          	mov    %eax,-0x28(%rsp)
  40145e:	8b 44 24 f0          	mov    -0x10(%rsp),%eax
  401462:	69 c0 46 03 00 00    	imul   $0x346,%eax,%eax
  401468:	89 44 24 f0          	mov    %eax,-0x10(%rsp)
  40146c:	8b 44 24 d8          	mov    -0x28(%rsp),%eax
  401470:	69 c0 00 32 00 00    	imul   $0x3200,%eax,%eax
  401476:	89 44 24 d8          	mov    %eax,-0x28(%rsp)
  40147a:	8b 44 24 e8          	mov    -0x18(%rsp),%eax
  40147e:	69 c0 8f 1d 00 00    	imul   $0x1d8f,%eax,%eax
  401484:	89 44 24 e8          	mov    %eax,-0x18(%rsp)
  401488:	8b 44 24 d4          	mov    -0x2c(%rsp),%eax
  40148c:	69 c0 df fd 00 00    	imul   $0xfddf,%eax,%eax
  401492:	89 44 24 d4          	mov    %eax,-0x2c(%rsp)
  401496:	8b 44 24 d4          	mov    -0x2c(%rsp),%eax
  40149a:	69 c0 44 6e 00 00    	imul   $0x6e44,%eax,%eax
  4014a0:	89 44 24 d4          	mov    %eax,-0x2c(%rsp)
  4014a4:	8b 44 24 d4          	mov    -0x2c(%rsp),%eax
  4014a8:	69 c0 a1 71 00 00    	imul   $0x71a1,%eax,%eax
  4014ae:	89 44 24 d4          	mov    %eax,-0x2c(%rsp)
  4014b2:	8b 44 24 f0          	mov    -0x10(%rsp),%eax
  4014b6:	69 c0 7e be 00 00    	imul   $0xbe7e,%eax,%eax
  4014bc:	89 44 24 f0          	mov    %eax,-0x10(%rsp)
  4014c0:	8b 44 24 d8          	mov    -0x28(%rsp),%eax
  4014c4:	69 c0 95 01 00 00    	imul   $0x195,%eax,%eax
  4014ca:	89 44 24 d8          	mov    %eax,-0x28(%rsp)
  4014ce:	8b 44 24 dc          	mov    -0x24(%rsp),%eax
  4014d2:	69 c0 26 0e 00 00    	imul   $0xe26,%eax,%eax
  4014d8:	89 44 24 dc          	mov    %eax,-0x24(%rsp)
  4014dc:	8b 44 24 d0          	mov    -0x30(%rsp),%eax
  4014e0:	69 c0 63 34 00 00    	imul   $0x3463,%eax,%eax
  4014e6:	89 44 24 d0          	mov    %eax,-0x30(%rsp)
  4014ea:	8b 44 24 dc          	mov    -0x24(%rsp),%eax
  4014ee:	69 c0 77 1a 00 00    	imul   $0x1a77,%eax,%eax
  4014f4:	89 44 24 dc          	mov    %eax,-0x24(%rsp)
  4014f8:	8b 44 24 d0          	mov    -0x30(%rsp),%eax
  4014fc:	69 c0 fd 64 00 00    	imul   $0x64fd,%eax,%eax
  401502:	89 44 24 d0          	mov    %eax,-0x30(%rsp)
  401506:	8b 44 24 e4          	mov    -0x1c(%rsp),%eax
  40150a:	69 c0 6c 25 00 00    	imul   $0x256c,%eax,%eax
  401510:	89 44 24 e4          	mov    %eax,-0x1c(%rsp)
  401514:	8b 44 24 ec          	mov    -0x14(%rsp),%eax
  401518:	69 c0 4b 69 00 00    	imul   $0x694b,%eax,%eax
  40151e:	89 44 24 ec          	mov    %eax,-0x14(%rsp)
  401522:	8b 44 24 d0          	mov    -0x30(%rsp),%eax
  401526:	69 c0 12 ac 00 00    	imul   $0xac12,%eax,%eax
  40152c:	89 44 24 d0          	mov    %eax,-0x30(%rsp)
  401530:	8b 44 24 d0          	mov    -0x30(%rsp),%eax
  401534:	69 c0 69 5a 00 00    	imul   $0x5a69,%eax,%eax
  40153a:	89 44 24 d0          	mov    %eax,-0x30(%rsp)
  40153e:	8b 44 24 e4          	mov    -0x1c(%rsp),%eax
  401542:	69 c0 92 f9 00 00    	imul   $0xf992,%eax,%eax
  401548:	89 44 24 e4          	mov    %eax,-0x1c(%rsp)
  40154c:	8b 44 24 f4          	mov    -0xc(%rsp),%eax
  401550:	69 c0 1e 71 00 00    	imul   $0x711e,%eax,%eax
  401556:	89 44 24 f4          	mov    %eax,-0xc(%rsp)
  40155a:	8b 44 24 e4          	mov    -0x1c(%rsp),%eax
  40155e:	69 c0 ea e0 00 00    	imul   $0xe0ea,%eax,%eax
  401564:	89 44 24 e4          	mov    %eax,-0x1c(%rsp)
  401568:	8b 44 24 e0          	mov    -0x20(%rsp),%eax
  40156c:	69 c0 06 5d 00 00    	imul   $0x5d06,%eax,%eax
  401572:	89 44 24 e0          	mov    %eax,-0x20(%rsp)
  401576:	8b 44 24 e4          	mov    -0x1c(%rsp),%eax
  40157a:	69 c0 7d 29 00 00    	imul   $0x297d,%eax,%eax
  401580:	89 44 24 e4          	mov    %eax,-0x1c(%rsp)
  401584:	8b 44 24 ec          	mov    -0x14(%rsp),%eax
  401588:	69 c0 bd 39 00 00    	imul   $0x39bd,%eax,%eax
  40158e:	89 44 24 ec          	mov    %eax,-0x14(%rsp)
  401592:	8b 44 24 d8          	mov    -0x28(%rsp),%eax
  401596:	69 c0 77 b9 00 00    	imul   $0xb977,%eax,%eax
  40159c:	89 44 24 d8          	mov    %eax,-0x28(%rsp)
  4015a0:	8b 44 24 f4          	mov    -0xc(%rsp),%eax
  4015a4:	69 c0 44 5d 00 00    	imul   $0x5d44,%eax,%eax
  4015aa:	89 44 24 f4          	mov    %eax,-0xc(%rsp)
  4015ae:	8b 44 24 f4          	mov    -0xc(%rsp),%eax
  4015b2:	69 c0 73 47 00 00    	imul   $0x4773,%eax,%eax
  4015b8:	89 44 24 f4          	mov    %eax,-0xc(%rsp)
  4015bc:	8b 44 24 e8          	mov    -0x18(%rsp),%eax
  4015c0:	69 c0 85 f3 00 00    	imul   $0xf385,%eax,%eax
  4015c6:	89 44 24 e8          	mov    %eax,-0x18(%rsp)
  4015ca:	8b 44 24 e0          	mov    -0x20(%rsp),%eax
  4015ce:	69 c0 d0 d3 00 00    	imul   $0xd3d0,%eax,%eax
  4015d4:	89 44 24 e0          	mov    %eax,-0x20(%rsp)
  4015d8:	8b 44 24 e8          	mov    -0x18(%rsp),%eax
  4015dc:	69 c0 6a 29 00 00    	imul   $0x296a,%eax,%eax
  4015e2:	89 44 24 e8          	mov    %eax,-0x18(%rsp)
  4015e6:	8b 44 24 f4          	mov    -0xc(%rsp),%eax
  4015ea:	69 c0 17 63 00 00    	imul   $0x6317,%eax,%eax
  4015f0:	89 44 24 f4          	mov    %eax,-0xc(%rsp)
  4015f4:	8b 44 24 d0          	mov    -0x30(%rsp),%eax
  4015f8:	69 c0 a3 a4 00 00    	imul   $0xa4a3,%eax,%eax
  4015fe:	89 44 24 d0          	mov    %eax,-0x30(%rsp)
  401602:	8b 44 24 e0          	mov    -0x20(%rsp),%eax
  401606:	69 c0 ee 57 00 00    	imul   $0x57ee,%eax,%eax
  40160c:	89 44 24 e0          	mov    %eax,-0x20(%rsp)
  401610:	8b 44 24 d8          	mov    -0x28(%rsp),%eax
  401614:	69 c0 82 be 00 00    	imul   $0xbe82,%eax,%eax
  40161a:	89 44 24 d8          	mov    %eax,-0x28(%rsp)
  40161e:	8b 44 24 dc          	mov    -0x24(%rsp),%eax
  401622:	69 c0 76 8b 00 00    	imul   $0x8b76,%eax,%eax
  401628:	89 44 24 dc          	mov    %eax,-0x24(%rsp)
  40162c:	8b 44 24 d8          	mov    -0x28(%rsp),%eax
  401630:	69 c0 a2 68 00 00    	imul   $0x68a2,%eax,%eax
  401636:	89 44 24 d8          	mov    %eax,-0x28(%rsp)
  40163a:	8b 44 24 f0          	mov    -0x10(%rsp),%eax
  40163e:	69 c0 9e 9e 00 00    	imul   $0x9e9e,%eax,%eax
  401644:	89 44 24 f0          	mov    %eax,-0x10(%rsp)
  401648:	8b 44 24 ec          	mov    -0x14(%rsp),%eax
  40164c:	69 c0 8e bb 00 00    	imul   $0xbb8e,%eax,%eax
  401652:	89 44 24 ec          	mov    %eax,-0x14(%rsp)
  401656:	8b 44 24 e0          	mov    -0x20(%rsp),%eax
  40165a:	69 c0 50 94 00 00    	imul   $0x9450,%eax,%eax
  401660:	89 44 24 e0          	mov    %eax,-0x20(%rsp)
  401664:	8b 44 24 d4          	mov    -0x2c(%rsp),%eax
  401668:	69 c0 17 b0 00 00    	imul   $0xb017,%eax,%eax
  40166e:	89 44 24 d4          	mov    %eax,-0x2c(%rsp)
  401672:	8b 44 24 ec          	mov    -0x14(%rsp),%eax
  401676:	69 c0 9e 30 00 00    	imul   $0x309e,%eax,%eax
  40167c:	89 44 24 ec          	mov    %eax,-0x14(%rsp)
  401680:	8b 44 24 e0          	mov    -0x20(%rsp),%eax
  401684:	69 c0 65 15 00 00    	imul   $0x1565,%eax,%eax
  40168a:	89 44 24 e0          	mov    %eax,-0x20(%rsp)
  40168e:	8b 44 24 d8          	mov    -0x28(%rsp),%eax
  401692:	69 c0 02 9f 00 00    	imul   $0x9f02,%eax,%eax
  401698:	89 44 24 d8          	mov    %eax,-0x28(%rsp)
  40169c:	8b 44 24 dc          	mov    -0x24(%rsp),%eax
  4016a0:	69 c0 fc d9 00 00    	imul   $0xd9fc,%eax,%eax
  4016a6:	89 44 24 dc          	mov    %eax,-0x24(%rsp)
  4016aa:	8b 44 24 d4          	mov    -0x2c(%rsp),%eax
  4016ae:	69 c0 6d 61 00 00    	imul   $0x616d,%eax,%eax
  4016b4:	89 44 24 d4          	mov    %eax,-0x2c(%rsp)
  4016b8:	8b 44 24 d0          	mov    -0x30(%rsp),%eax
  4016bc:	69 c0 0f 6c 00 00    	imul   $0x6c0f,%eax,%eax
  4016c2:	89 44 24 d0          	mov    %eax,-0x30(%rsp)
  4016c6:	8b 44 24 e4          	mov    -0x1c(%rsp),%eax
  4016ca:	69 c0 1c 96 00 00    	imul   $0x961c,%eax,%eax
  4016d0:	89 44 24 e4          	mov    %eax,-0x1c(%rsp)
  4016d4:	8b 44 24 e0          	mov    -0x20(%rsp),%eax
  4016d8:	69 c0 ae d3 00 00    	imul   $0xd3ae,%eax,%eax
  4016de:	89 44 24 e0          	mov    %eax,-0x20(%rsp)
  4016e2:	8b 44 24 dc          	mov    -0x24(%rsp),%eax
  4016e6:	69 c0 bf 0f 00 00    	imul   $0xfbf,%eax,%eax
  4016ec:	89 44 24 dc          	mov    %eax,-0x24(%rsp)
  4016f0:	8b 44 24 d4          	mov    -0x2c(%rsp),%eax
  4016f4:	69 c0 8b 3f 00 00    	imul   $0x3f8b,%eax,%eax
  4016fa:	89 44 24 d4          	mov    %eax,-0x2c(%rsp)
  4016fe:	8b 44 24 e4          	mov    -0x1c(%rsp),%eax
  401702:	69 c0 d2 c1 00 00    	imul   $0xc1d2,%eax,%eax
  401708:	89 44 24 e4          	mov    %eax,-0x1c(%rsp)
  40170c:	8b 44 24 e8          	mov    -0x18(%rsp),%eax
  401710:	69 c0 95 07 00 00    	imul   $0x795,%eax,%eax
  401716:	89 44 24 e8          	mov    %eax,-0x18(%rsp)
  40171a:	8b 44 24 e0          	mov    -0x20(%rsp),%eax
  40171e:	69 c0 d5 6d 00 00    	imul   $0x6dd5,%eax,%eax
  401724:	89 44 24 e0          	mov    %eax,-0x20(%rsp)
  401728:	8b 44 24 d4          	mov    -0x2c(%rsp),%eax
  40172c:	69 c0 8c 28 00 00    	imul   $0x288c,%eax,%eax
  401732:	89 44 24 d4          	mov    %eax,-0x2c(%rsp)
  401736:	8b 44 24 dc          	mov    -0x24(%rsp),%eax
  40173a:	69 c0 70 b8 00 00    	imul   $0xb870,%eax,%eax
  401740:	89 44 24 dc          	mov    %eax,-0x24(%rsp)
  401744:	8b 44 24 f0          	mov    -0x10(%rsp),%eax
  401748:	69 c0 ed 4f 00 00    	imul   $0x4fed,%eax,%eax
  40174e:	89 44 24 f0          	mov    %eax,-0x10(%rsp)
  401752:	8b 44 24 f0          	mov    -0x10(%rsp),%eax
  401756:	69 c0 fe e5 00 00    	imul   $0xe5fe,%eax,%eax
  40175c:	89 44 24 f0          	mov    %eax,-0x10(%rsp)
  401760:	8b 44 24 f0          	mov    -0x10(%rsp),%eax
  401764:	69 c0 20 61 00 00    	imul   $0x6120,%eax,%eax
  40176a:	89 44 24 f0          	mov    %eax,-0x10(%rsp)
  40176e:	8b 44 24 e4          	mov    -0x1c(%rsp),%eax
  401772:	69 c0 3c 6e 00 00    	imul   $0x6e3c,%eax,%eax
  401778:	89 44 24 e4          	mov    %eax,-0x1c(%rsp)
  40177c:	8b 44 24 d4          	mov    -0x2c(%rsp),%eax
  401780:	69 c0 d3 f7 00 00    	imul   $0xf7d3,%eax,%eax
  401786:	89 44 24 d4          	mov    %eax,-0x2c(%rsp)
  40178a:	8b 44 24 dc          	mov    -0x24(%rsp),%eax
  40178e:	69 c0 84 3e 00 00    	imul   $0x3e84,%eax,%eax
  401794:	89 44 24 dc          	mov    %eax,-0x24(%rsp)
  401798:	8b 44 24 d0          	mov    -0x30(%rsp),%eax
  40179c:	69 c0 2e 94 00 00    	imul   $0x942e,%eax,%eax
  4017a2:	89 44 24 d0          	mov    %eax,-0x30(%rsp)
  4017a6:	8b 44 24 e0          	mov    -0x20(%rsp),%eax
  4017aa:	69 c0 96 74 00 00    	imul   $0x7496,%eax,%eax
  4017b0:	89 44 24 e0          	mov    %eax,-0x20(%rsp)
  4017b4:	8b 44 24 d4          	mov    -0x2c(%rsp),%eax
  4017b8:	69 c0 ab c2 00 00    	imul   $0xc2ab,%eax,%eax
  4017be:	89 44 24 d4          	mov    %eax,-0x2c(%rsp)
  4017c2:	8b 44 24 f0          	mov    -0x10(%rsp),%eax
  4017c6:	69 c0 0d fa 00 00    	imul   $0xfa0d,%eax,%eax
  4017cc:	89 44 24 f0          	mov    %eax,-0x10(%rsp)
  4017d0:	8b 44 24 ec          	mov    -0x14(%rsp),%eax
  4017d4:	69 c0 8b 1f 00 00    	imul   $0x1f8b,%eax,%eax
  4017da:	89 44 24 ec          	mov    %eax,-0x14(%rsp)
  4017de:	ba 00 00 00 00       	mov    $0x0,%edx
  4017e3:	b8 00 00 00 00       	mov    $0x0,%eax
  4017e8:	89 d1                	mov    %edx,%ecx
  4017ea:	8b 4c 8c d0          	mov    -0x30(%rsp,%rcx,4),%ecx
  4017ee:	01 c8                	add    %ecx,%eax
  4017f0:	83 c2 01             	add    $0x1,%edx
  4017f3:	83 fa 0a             	cmp    $0xa,%edx
  4017f6:	75 f0                	jne    4017e8 <scramble+0x571>
  4017f8:	c3                   	retq   

00000000004017f9 <getbuf>:
  4017f9:	48 83 ec 38          	sub    $0x38,%rsp
  4017fd:	48 89 e7             	mov    %rsp,%rdi
  401800:	e8 be 01 00 00       	callq  4019c3 <Gets>
  401805:	b8 01 00 00 00       	mov    $0x1,%eax
  40180a:	48 83 c4 38          	add    $0x38,%rsp
  40180e:	c3                   	retq   

000000000040180f <touch1>:
  40180f:	48 83 ec 08          	sub    $0x8,%rsp
  401813:	c7 05 df 2c 20 00 01 	movl   $0x1,0x202cdf(%rip)        # 6044fc <vlevel>
  40181a:	00 00 00 
  40181d:	bf 4a 31 40 00       	mov    $0x40314a,%edi
  401822:	e8 49 f4 ff ff       	callq  400c70 <puts@plt>
  401827:	bf 01 00 00 00       	mov    $0x1,%edi
  40182c:	e8 fb 03 00 00       	callq  401c2c <validate>
  401831:	bf 00 00 00 00       	mov    $0x0,%edi
  401836:	e8 95 f5 ff ff       	callq  400dd0 <exit@plt>

000000000040183b <touch2>:
  40183b:	48 83 ec 08          	sub    $0x8,%rsp
  40183f:	89 fe                	mov    %edi,%esi
  401841:	c7 05 b1 2c 20 00 02 	movl   $0x2,0x202cb1(%rip)        # 6044fc <vlevel>
  401848:	00 00 00 
  40184b:	39 3d b3 2c 20 00    	cmp    %edi,0x202cb3(%rip)        # 604504 <cookie>
  401851:	74 23                	je     401876 <touch2+0x3b>
  401853:	bf 98 31 40 00       	mov    $0x403198,%edi
  401858:	b8 00 00 00 00       	mov    $0x0,%eax
  40185d:	e8 3e f4 ff ff       	callq  400ca0 <printf@plt>
  401862:	bf 02 00 00 00       	mov    $0x2,%edi
  401867:	e8 94 04 00 00       	callq  401d00 <fail>
  40186c:	bf 00 00 00 00       	mov    $0x0,%edi
  401871:	e8 5a f5 ff ff       	callq  400dd0 <exit@plt>
  401876:	bf 70 31 40 00       	mov    $0x403170,%edi
  40187b:	b8 00 00 00 00       	mov    $0x0,%eax
  401880:	e8 1b f4 ff ff       	callq  400ca0 <printf@plt>
  401885:	bf 02 00 00 00       	mov    $0x2,%edi
  40188a:	e8 9d 03 00 00       	callq  401c2c <validate>
  40188f:	eb db                	jmp    40186c <touch2+0x31>

0000000000401891 <hexmatch>:
  401891:	41 54                	push   %r12
  401893:	55                   	push   %rbp
  401894:	53                   	push   %rbx
  401895:	48 83 ec 70          	sub    $0x70,%rsp
  401899:	89 fd                	mov    %edi,%ebp
  40189b:	48 89 f3             	mov    %rsi,%rbx
  40189e:	e8 9d f4 ff ff       	callq  400d40 <random@plt>
  4018a3:	48 89 c1             	mov    %rax,%rcx
  4018a6:	48 ba 0b d7 a3 70 3d 	movabs $0xa3d70a3d70a3d70b,%rdx
  4018ad:	0a d7 a3 
  4018b0:	48 f7 ea             	imul   %rdx
  4018b3:	48 01 ca             	add    %rcx,%rdx
  4018b6:	48 c1 fa 06          	sar    $0x6,%rdx
  4018ba:	48 89 c8             	mov    %rcx,%rax
  4018bd:	48 c1 f8 3f          	sar    $0x3f,%rax
  4018c1:	48 29 c2             	sub    %rax,%rdx
  4018c4:	48 8d 04 92          	lea    (%rdx,%rdx,4),%rax
  4018c8:	48 8d 04 80          	lea    (%rax,%rax,4),%rax
  4018cc:	48 c1 e0 02          	shl    $0x2,%rax
  4018d0:	48 29 c1             	sub    %rax,%rcx
  4018d3:	4c 8d 24 0c          	lea    (%rsp,%rcx,1),%r12
  4018d7:	89 ea                	mov    %ebp,%edx
  4018d9:	be 67 31 40 00       	mov    $0x403167,%esi
  4018de:	4c 89 e7             	mov    %r12,%rdi
  4018e1:	b8 00 00 00 00       	mov    $0x0,%eax
  4018e6:	e8 d5 f4 ff ff       	callq  400dc0 <sprintf@plt>
  4018eb:	ba 09 00 00 00       	mov    $0x9,%edx
  4018f0:	4c 89 e6             	mov    %r12,%rsi
  4018f3:	48 89 df             	mov    %rbx,%rdi
  4018f6:	e8 55 f3 ff ff       	callq  400c50 <strncmp@plt>
  4018fb:	85 c0                	test   %eax,%eax
  4018fd:	0f 94 c0             	sete   %al
  401900:	0f b6 c0             	movzbl %al,%eax
  401903:	48 83 c4 70          	add    $0x70,%rsp
  401907:	5b                   	pop    %rbx
  401908:	5d                   	pop    %rbp
  401909:	41 5c                	pop    %r12
  40190b:	c3                   	retq   

000000000040190c <touch3>:
  40190c:	53                   	push   %rbx
  40190d:	48 89 fb             	mov    %rdi,%rbx
  401910:	c7 05 e2 2b 20 00 03 	movl   $0x3,0x202be2(%rip)        # 6044fc <vlevel>
  401917:	00 00 00 
  40191a:	48 89 fe             	mov    %rdi,%rsi
  40191d:	8b 3d e1 2b 20 00    	mov    0x202be1(%rip),%edi        # 604504 <cookie>
  401923:	e8 69 ff ff ff       	callq  401891 <hexmatch>
  401928:	85 c0                	test   %eax,%eax
  40192a:	74 26                	je     401952 <touch3+0x46>
  40192c:	48 89 de             	mov    %rbx,%rsi
  40192f:	bf c0 31 40 00       	mov    $0x4031c0,%edi
  401934:	b8 00 00 00 00       	mov    $0x0,%eax
  401939:	e8 62 f3 ff ff       	callq  400ca0 <printf@plt>
  40193e:	bf 03 00 00 00       	mov    $0x3,%edi
  401943:	e8 e4 02 00 00       	callq  401c2c <validate>
  401948:	bf 00 00 00 00       	mov    $0x0,%edi
  40194d:	e8 7e f4 ff ff       	callq  400dd0 <exit@plt>
  401952:	48 89 de             	mov    %rbx,%rsi
  401955:	bf e8 31 40 00       	mov    $0x4031e8,%edi
  40195a:	b8 00 00 00 00       	mov    $0x0,%eax
  40195f:	e8 3c f3 ff ff       	callq  400ca0 <printf@plt>
  401964:	bf 03 00 00 00       	mov    $0x3,%edi
  401969:	e8 92 03 00 00       	callq  401d00 <fail>
  40196e:	eb d8                	jmp    401948 <touch3+0x3c>

0000000000401970 <test>:
  401970:	48 83 ec 08          	sub    $0x8,%rsp
  401974:	b8 00 00 00 00       	mov    $0x0,%eax
  401979:	e8 7b fe ff ff       	callq  4017f9 <getbuf>
  40197e:	89 c6                	mov    %eax,%esi
  401980:	bf 10 32 40 00       	mov    $0x403210,%edi
  401985:	b8 00 00 00 00       	mov    $0x0,%eax
  40198a:	e8 11 f3 ff ff       	callq  400ca0 <printf@plt>
  40198f:	48 83 c4 08          	add    $0x8,%rsp
  401993:	c3                   	retq   

0000000000401994 <check_fail>:
  401994:	48 83 ec 08          	sub    $0x8,%rsp
  401998:	0f be 35 89 37 20 00 	movsbl 0x203789(%rip),%esi        # 605128 <target_prefix>
  40199f:	b9 20 45 60 00       	mov    $0x604520,%ecx
  4019a4:	8b 15 4e 2b 20 00    	mov    0x202b4e(%rip),%edx        # 6044f8 <check_level>
  4019aa:	bf 33 32 40 00       	mov    $0x403233,%edi
  4019af:	b8 00 00 00 00       	mov    $0x0,%eax
  4019b4:	e8 e7 f2 ff ff       	callq  400ca0 <printf@plt>
  4019b9:	bf 01 00 00 00       	mov    $0x1,%edi
  4019be:	e8 0d f4 ff ff       	callq  400dd0 <exit@plt>

00000000004019c3 <Gets>:
  4019c3:	55                   	push   %rbp
  4019c4:	53                   	push   %rbx
  4019c5:	48 83 ec 08          	sub    $0x8,%rsp
  4019c9:	48 89 fd             	mov    %rdi,%rbp
  4019cc:	c7 05 4e 37 20 00 00 	movl   $0x0,0x20374e(%rip)        # 605124 <gets_cnt>
  4019d3:	00 00 00 
  4019d6:	48 89 fb             	mov    %rdi,%rbx
  4019d9:	48 8b 3d 10 2b 20 00 	mov    0x202b10(%rip),%rdi        # 6044f0 <infile>
  4019e0:	e8 0b f4 ff ff       	callq  400df0 <getc@plt>
  4019e5:	83 f8 0a             	cmp    $0xa,%eax
  4019e8:	74 65                	je     401a4f <Gets+0x8c>
  4019ea:	83 f8 ff             	cmp    $0xffffffff,%eax
  4019ed:	74 60                	je     401a4f <Gets+0x8c>
  4019ef:	48 83 c3 01          	add    $0x1,%rbx
  4019f3:	88 43 ff             	mov    %al,-0x1(%rbx)
  4019f6:	8b 15 28 37 20 00    	mov    0x203728(%rip),%edx        # 605124 <gets_cnt>
  4019fc:	81 fa ff 03 00 00    	cmp    $0x3ff,%edx
  401a02:	7f d5                	jg     4019d9 <Gets+0x16>
  401a04:	8d 0c 52             	lea    (%rdx,%rdx,2),%ecx
  401a07:	48 63 f9             	movslq %ecx,%rdi
  401a0a:	89 c6                	mov    %eax,%esi
  401a0c:	40 c0 ee 04          	shr    $0x4,%sil
  401a10:	83 e6 0f             	and    $0xf,%esi
  401a13:	0f b6 b6 30 35 40 00 	movzbl 0x403530(%rsi),%esi
  401a1a:	40 88 b7 20 45 60 00 	mov    %sil,0x604520(%rdi)
  401a21:	8d 71 01             	lea    0x1(%rcx),%esi
  401a24:	48 63 f6             	movslq %esi,%rsi
  401a27:	83 e0 0f             	and    $0xf,%eax
  401a2a:	0f b6 80 30 35 40 00 	movzbl 0x403530(%rax),%eax
  401a31:	88 86 20 45 60 00    	mov    %al,0x604520(%rsi)
  401a37:	83 c1 02             	add    $0x2,%ecx
  401a3a:	48 63 c9             	movslq %ecx,%rcx
  401a3d:	c6 81 20 45 60 00 20 	movb   $0x20,0x604520(%rcx)
  401a44:	83 c2 01             	add    $0x1,%edx
  401a47:	89 15 d7 36 20 00    	mov    %edx,0x2036d7(%rip)        # 605124 <gets_cnt>
  401a4d:	eb 8a                	jmp    4019d9 <Gets+0x16>
  401a4f:	c6 03 00             	movb   $0x0,(%rbx)
  401a52:	8b 05 cc 36 20 00    	mov    0x2036cc(%rip),%eax        # 605124 <gets_cnt>
  401a58:	8d 04 40             	lea    (%rax,%rax,2),%eax
  401a5b:	48 98                	cltq   
  401a5d:	c6 80 20 45 60 00 00 	movb   $0x0,0x604520(%rax)
  401a64:	48 89 e8             	mov    %rbp,%rax
  401a67:	48 83 c4 08          	add    $0x8,%rsp
  401a6b:	5b                   	pop    %rbx
  401a6c:	5d                   	pop    %rbp
  401a6d:	c3                   	retq   

0000000000401a6e <notify_server>:
  401a6e:	83 3d 93 2a 20 00 00 	cmpl   $0x0,0x202a93(%rip)        # 604508 <is_checker>
  401a75:	0f 85 b0 01 00 00    	jne    401c2b <notify_server+0x1bd>
  401a7b:	48 81 ec 08 40 00 00 	sub    $0x4008,%rsp
  401a82:	81 3d 98 36 20 00 9c 	cmpl   $0x1f9c,0x203698(%rip)        # 605124 <gets_cnt>
  401a89:	1f 00 00 
  401a8c:	7f 71                	jg     401aff <notify_server+0x91>
  401a8e:	44 0f be 0d 92 36 20 	movsbl 0x203692(%rip),%r9d        # 605128 <target_prefix>
  401a95:	00 
  401a96:	83 3d eb 29 20 00 00 	cmpl   $0x0,0x2029eb(%rip)        # 604488 <notify>
  401a9d:	41 b8 ff ff ff ff    	mov    $0xffffffff,%r8d
  401aa3:	44 0f 45 05 55 2a 20 	cmovne 0x202a55(%rip),%r8d        # 604500 <authkey>
  401aaa:	00 
  401aab:	85 ff                	test   %edi,%edi
  401aad:	0f 85 ee 00 00 00    	jne    401ba1 <notify_server+0x133>
  401ab3:	68 20 45 60 00       	pushq  $0x604520
  401ab8:	56                   	push   %rsi
  401ab9:	b9 4e 32 40 00       	mov    $0x40324e,%ecx
  401abe:	8b 15 84 26 20 00    	mov    0x202684(%rip),%edx        # 604148 <target_id>
  401ac4:	be 9e 32 40 00       	mov    $0x40329e,%esi
  401ac9:	48 8d bc 24 10 20 00 	lea    0x2010(%rsp),%rdi
  401ad0:	00 
  401ad1:	b8 00 00 00 00       	mov    $0x0,%eax
  401ad6:	e8 e5 f2 ff ff       	callq  400dc0 <sprintf@plt>
  401adb:	48 83 c4 10          	add    $0x10,%rsp
  401adf:	be 4e 32 40 00       	mov    $0x40324e,%esi
  401ae4:	83 3d 9d 29 20 00 00 	cmpl   $0x0,0x20299d(%rip)        # 604488 <notify>
  401aeb:	74 47                	je     401b34 <notify_server+0xc6>
  401aed:	bf 69 32 40 00       	mov    $0x403269,%edi
  401af2:	e8 79 f1 ff ff       	callq  400c70 <puts@plt>
  401af7:	48 81 c4 08 40 00 00 	add    $0x4008,%rsp
  401afe:	c3                   	retq   
  401aff:	bf 68 33 40 00       	mov    $0x403368,%edi
  401b04:	b8 00 00 00 00       	mov    $0x0,%eax
  401b09:	e8 92 f1 ff ff       	callq  400ca0 <printf@plt>
  401b0e:	bf 01 00 00 00       	mov    $0x1,%edi
  401b13:	e8 b8 f2 ff ff       	callq  400dd0 <exit@plt>
  401b18:	48 89 e6             	mov    %rsp,%rsi
  401b1b:	bf 53 32 40 00       	mov    $0x403253,%edi
  401b20:	b8 00 00 00 00       	mov    $0x0,%eax
  401b25:	e8 76 f1 ff ff       	callq  400ca0 <printf@plt>
  401b2a:	bf 01 00 00 00       	mov    $0x1,%edi
  401b2f:	e8 9c f2 ff ff       	callq  400dd0 <exit@plt>
  401b34:	bf d0 33 40 00       	mov    $0x4033d0,%edi
  401b39:	b8 00 00 00 00       	mov    $0x0,%eax
  401b3e:	e8 5d f1 ff ff       	callq  400ca0 <printf@plt>
  401b43:	48 8b 35 f6 25 20 00 	mov    0x2025f6(%rip),%rsi        # 604140 <user_id>
  401b4a:	bf 70 32 40 00       	mov    $0x403270,%edi
  401b4f:	b8 00 00 00 00       	mov    $0x0,%eax
  401b54:	e8 47 f1 ff ff       	callq  400ca0 <printf@plt>
  401b59:	48 8b 35 f8 25 20 00 	mov    0x2025f8(%rip),%rsi        # 604158 <course>
  401b60:	bf 7d 32 40 00       	mov    $0x40327d,%edi
  401b65:	b8 00 00 00 00       	mov    $0x0,%eax
  401b6a:	e8 31 f1 ff ff       	callq  400ca0 <printf@plt>
  401b6f:	48 8b 35 da 25 20 00 	mov    0x2025da(%rip),%rsi        # 604150 <lab>
  401b76:	bf 89 32 40 00       	mov    $0x403289,%edi
  401b7b:	b8 00 00 00 00       	mov    $0x0,%eax
  401b80:	e8 1b f1 ff ff       	callq  400ca0 <printf@plt>
  401b85:	48 8d b4 24 00 20 00 	lea    0x2000(%rsp),%rsi
  401b8c:	00 
  401b8d:	bf 92 32 40 00       	mov    $0x403292,%edi
  401b92:	b8 00 00 00 00       	mov    $0x0,%eax
  401b97:	e8 04 f1 ff ff       	callq  400ca0 <printf@plt>
  401b9c:	e9 56 ff ff ff       	jmpq   401af7 <notify_server+0x89>
  401ba1:	68 20 45 60 00       	pushq  $0x604520
  401ba6:	56                   	push   %rsi
  401ba7:	b9 49 32 40 00       	mov    $0x403249,%ecx
  401bac:	8b 15 96 25 20 00    	mov    0x202596(%rip),%edx        # 604148 <target_id>
  401bb2:	be 9e 32 40 00       	mov    $0x40329e,%esi
  401bb7:	48 8d bc 24 10 20 00 	lea    0x2010(%rsp),%rdi
  401bbe:	00 
  401bbf:	b8 00 00 00 00       	mov    $0x0,%eax
  401bc4:	e8 f7 f1 ff ff       	callq  400dc0 <sprintf@plt>
  401bc9:	48 83 c4 10          	add    $0x10,%rsp
  401bcd:	be 49 32 40 00       	mov    $0x403249,%esi
  401bd2:	83 3d af 28 20 00 00 	cmpl   $0x0,0x2028af(%rip)        # 604488 <notify>
  401bd9:	0f 84 55 ff ff ff    	je     401b34 <notify_server+0xc6>
  401bdf:	49 89 e1             	mov    %rsp,%r9
  401be2:	41 b8 00 00 00 00    	mov    $0x0,%r8d
  401be8:	48 8d 8c 24 00 20 00 	lea    0x2000(%rsp),%rcx
  401bef:	00 
  401bf0:	48 8b 15 59 25 20 00 	mov    0x202559(%rip),%rdx        # 604150 <lab>
  401bf7:	48 8b 35 5a 25 20 00 	mov    0x20255a(%rip),%rsi        # 604158 <course>
  401bfe:	48 8b 3d 3b 25 20 00 	mov    0x20253b(%rip),%rdi        # 604140 <user_id>
  401c05:	e8 be 0e 00 00       	callq  402ac8 <driver_post>
  401c0a:	85 c0                	test   %eax,%eax
  401c0c:	0f 88 06 ff ff ff    	js     401b18 <notify_server+0xaa>
  401c12:	bf 98 33 40 00       	mov    $0x403398,%edi
  401c17:	e8 54 f0 ff ff       	callq  400c70 <puts@plt>
  401c1c:	bf 5f 32 40 00       	mov    $0x40325f,%edi
  401c21:	e8 4a f0 ff ff       	callq  400c70 <puts@plt>
  401c26:	e9 cc fe ff ff       	jmpq   401af7 <notify_server+0x89>
  401c2b:	c3                   	retq   

0000000000401c2c <validate>:
  401c2c:	53                   	push   %rbx
  401c2d:	48 83 ec 10          	sub    $0x10,%rsp
  401c31:	89 fb                	mov    %edi,%ebx
  401c33:	48 c7 44 24 08 00 00 	movq   $0x0,0x8(%rsp)
  401c3a:	00 00 
  401c3c:	48 8d 44 24 10       	lea    0x10(%rsp),%rax
  401c41:	a8 08                	test   $0x8,%al
  401c43:	74 04                	je     401c49 <validate+0x1d>
  401c45:	48 83 ec 08          	sub    $0x8,%rsp
  401c49:	83 3d b8 28 20 00 00 	cmpl   $0x0,0x2028b8(%rip)        # 604508 <is_checker>
  401c50:	74 60                	je     401cb2 <validate+0x86>
  401c52:	39 1d a4 28 20 00    	cmp    %ebx,0x2028a4(%rip)        # 6044fc <vlevel>
  401c58:	75 25                	jne    401c7f <validate+0x53>
  401c5a:	8b 35 98 28 20 00    	mov    0x202898(%rip),%esi        # 6044f8 <check_level>
  401c60:	39 de                	cmp    %ebx,%esi
  401c62:	74 2f                	je     401c93 <validate+0x67>
  401c64:	89 da                	mov    %ebx,%edx
  401c66:	bf f8 33 40 00       	mov    $0x4033f8,%edi
  401c6b:	b8 00 00 00 00       	mov    $0x0,%eax
  401c70:	e8 2b f0 ff ff       	callq  400ca0 <printf@plt>
  401c75:	b8 00 00 00 00       	mov    $0x0,%eax
  401c7a:	e8 15 fd ff ff       	callq  401994 <check_fail>
  401c7f:	bf ba 32 40 00       	mov    $0x4032ba,%edi
  401c84:	e8 e7 ef ff ff       	callq  400c70 <puts@plt>
  401c89:	b8 00 00 00 00       	mov    $0x0,%eax
  401c8e:	e8 01 fd ff ff       	callq  401994 <check_fail>
  401c93:	0f be 35 8e 34 20 00 	movsbl 0x20348e(%rip),%esi        # 605128 <target_prefix>
  401c9a:	b9 20 45 60 00       	mov    $0x604520,%ecx
  401c9f:	89 da                	mov    %ebx,%edx
  401ca1:	bf d8 32 40 00       	mov    $0x4032d8,%edi
  401ca6:	b8 00 00 00 00       	mov    $0x0,%eax
  401cab:	e8 f0 ef ff ff       	callq  400ca0 <printf@plt>
  401cb0:	eb 1e                	jmp    401cd0 <validate+0xa4>
  401cb2:	39 1d 44 28 20 00    	cmp    %ebx,0x202844(%rip)        # 6044fc <vlevel>
  401cb8:	74 20                	je     401cda <validate+0xae>
  401cba:	bf ba 32 40 00       	mov    $0x4032ba,%edi
  401cbf:	e8 ac ef ff ff       	callq  400c70 <puts@plt>
  401cc4:	89 de                	mov    %ebx,%esi
  401cc6:	bf 00 00 00 00       	mov    $0x0,%edi
  401ccb:	e8 9e fd ff ff       	callq  401a6e <notify_server>
  401cd0:	bf 00 00 00 00       	mov    $0x0,%edi
  401cd5:	e8 f6 f0 ff ff       	callq  400dd0 <exit@plt>
  401cda:	0f be 15 47 34 20 00 	movsbl 0x203447(%rip),%edx        # 605128 <target_prefix>
  401ce1:	89 de                	mov    %ebx,%esi
  401ce3:	bf 20 34 40 00       	mov    $0x403420,%edi
  401ce8:	b8 00 00 00 00       	mov    $0x0,%eax
  401ced:	e8 ae ef ff ff       	callq  400ca0 <printf@plt>
  401cf2:	89 de                	mov    %ebx,%esi
  401cf4:	bf 01 00 00 00       	mov    $0x1,%edi
  401cf9:	e8 70 fd ff ff       	callq  401a6e <notify_server>
  401cfe:	eb d0                	jmp    401cd0 <validate+0xa4>

0000000000401d00 <fail>:
  401d00:	48 83 ec 08          	sub    $0x8,%rsp
  401d04:	83 3d fd 27 20 00 00 	cmpl   $0x0,0x2027fd(%rip)        # 604508 <is_checker>
  401d0b:	75 11                	jne    401d1e <fail+0x1e>
  401d0d:	89 fe                	mov    %edi,%esi
  401d0f:	bf 00 00 00 00       	mov    $0x0,%edi
  401d14:	e8 55 fd ff ff       	callq  401a6e <notify_server>
  401d19:	48 83 c4 08          	add    $0x8,%rsp
  401d1d:	c3                   	retq   
  401d1e:	b8 00 00 00 00       	mov    $0x0,%eax
  401d23:	e8 6c fc ff ff       	callq  401994 <check_fail>

0000000000401d28 <bushandler>:
  401d28:	48 83 ec 08          	sub    $0x8,%rsp
  401d2c:	83 3d d5 27 20 00 00 	cmpl   $0x0,0x2027d5(%rip)        # 604508 <is_checker>
  401d33:	74 14                	je     401d49 <bushandler+0x21>
  401d35:	bf ed 32 40 00       	mov    $0x4032ed,%edi
  401d3a:	e8 31 ef ff ff       	callq  400c70 <puts@plt>
  401d3f:	b8 00 00 00 00       	mov    $0x0,%eax
  401d44:	e8 4b fc ff ff       	callq  401994 <check_fail>
  401d49:	bf 58 34 40 00       	mov    $0x403458,%edi
  401d4e:	e8 1d ef ff ff       	callq  400c70 <puts@plt>
  401d53:	bf f7 32 40 00       	mov    $0x4032f7,%edi
  401d58:	e8 13 ef ff ff       	callq  400c70 <puts@plt>
  401d5d:	be 00 00 00 00       	mov    $0x0,%esi
  401d62:	bf 00 00 00 00       	mov    $0x0,%edi
  401d67:	e8 02 fd ff ff       	callq  401a6e <notify_server>
  401d6c:	bf 01 00 00 00       	mov    $0x1,%edi
  401d71:	e8 5a f0 ff ff       	callq  400dd0 <exit@plt>

0000000000401d76 <seghandler>:
  401d76:	48 83 ec 08          	sub    $0x8,%rsp
  401d7a:	83 3d 87 27 20 00 00 	cmpl   $0x0,0x202787(%rip)        # 604508 <is_checker>
  401d81:	74 14                	je     401d97 <seghandler+0x21>
  401d83:	bf 0d 33 40 00       	mov    $0x40330d,%edi
  401d88:	e8 e3 ee ff ff       	callq  400c70 <puts@plt>
  401d8d:	b8 00 00 00 00       	mov    $0x0,%eax
  401d92:	e8 fd fb ff ff       	callq  401994 <check_fail>
  401d97:	bf 78 34 40 00       	mov    $0x403478,%edi
  401d9c:	e8 cf ee ff ff       	callq  400c70 <puts@plt>
  401da1:	bf f7 32 40 00       	mov    $0x4032f7,%edi
  401da6:	e8 c5 ee ff ff       	callq  400c70 <puts@plt>
  401dab:	be 00 00 00 00       	mov    $0x0,%esi
  401db0:	bf 00 00 00 00       	mov    $0x0,%edi
  401db5:	e8 b4 fc ff ff       	callq  401a6e <notify_server>
  401dba:	bf 01 00 00 00       	mov    $0x1,%edi
  401dbf:	e8 0c f0 ff ff       	callq  400dd0 <exit@plt>

0000000000401dc4 <illegalhandler>:
  401dc4:	48 83 ec 08          	sub    $0x8,%rsp
  401dc8:	83 3d 39 27 20 00 00 	cmpl   $0x0,0x202739(%rip)        # 604508 <is_checker>
  401dcf:	74 14                	je     401de5 <illegalhandler+0x21>
  401dd1:	bf 20 33 40 00       	mov    $0x403320,%edi
  401dd6:	e8 95 ee ff ff       	callq  400c70 <puts@plt>
  401ddb:	b8 00 00 00 00       	mov    $0x0,%eax
  401de0:	e8 af fb ff ff       	callq  401994 <check_fail>
  401de5:	bf a0 34 40 00       	mov    $0x4034a0,%edi
  401dea:	e8 81 ee ff ff       	callq  400c70 <puts@plt>
  401def:	bf f7 32 40 00       	mov    $0x4032f7,%edi
  401df4:	e8 77 ee ff ff       	callq  400c70 <puts@plt>
  401df9:	be 00 00 00 00       	mov    $0x0,%esi
  401dfe:	bf 00 00 00 00       	mov    $0x0,%edi
  401e03:	e8 66 fc ff ff       	callq  401a6e <notify_server>
  401e08:	bf 01 00 00 00       	mov    $0x1,%edi
  401e0d:	e8 be ef ff ff       	callq  400dd0 <exit@plt>

0000000000401e12 <sigalrmhandler>:
  401e12:	48 83 ec 08          	sub    $0x8,%rsp
  401e16:	83 3d eb 26 20 00 00 	cmpl   $0x0,0x2026eb(%rip)        # 604508 <is_checker>
  401e1d:	74 14                	je     401e33 <sigalrmhandler+0x21>
  401e1f:	bf 34 33 40 00       	mov    $0x403334,%edi
  401e24:	e8 47 ee ff ff       	callq  400c70 <puts@plt>
  401e29:	b8 00 00 00 00       	mov    $0x0,%eax
  401e2e:	e8 61 fb ff ff       	callq  401994 <check_fail>
  401e33:	be 05 00 00 00       	mov    $0x5,%esi
  401e38:	bf d0 34 40 00       	mov    $0x4034d0,%edi
  401e3d:	b8 00 00 00 00       	mov    $0x0,%eax
  401e42:	e8 59 ee ff ff       	callq  400ca0 <printf@plt>
  401e47:	be 00 00 00 00       	mov    $0x0,%esi
  401e4c:	bf 00 00 00 00       	mov    $0x0,%edi
  401e51:	e8 18 fc ff ff       	callq  401a6e <notify_server>
  401e56:	bf 01 00 00 00       	mov    $0x1,%edi
  401e5b:	e8 70 ef ff ff       	callq  400dd0 <exit@plt>

0000000000401e60 <launch>:
  401e60:	55                   	push   %rbp
  401e61:	48 89 e5             	mov    %rsp,%rbp
  401e64:	48 89 fa             	mov    %rdi,%rdx
  401e67:	48 8d 47 17          	lea    0x17(%rdi),%rax
  401e6b:	48 83 e0 f0          	and    $0xfffffffffffffff0,%rax
  401e6f:	48 29 c4             	sub    %rax,%rsp
  401e72:	48 8d 7c 24 0f       	lea    0xf(%rsp),%rdi
  401e77:	48 83 e7 f0          	and    $0xfffffffffffffff0,%rdi
  401e7b:	be f4 00 00 00       	mov    $0xf4,%esi
  401e80:	e8 2b ee ff ff       	callq  400cb0 <memset@plt>
  401e85:	48 8b 05 14 26 20 00 	mov    0x202614(%rip),%rax        # 6044a0 <stdin@@GLIBC_2.2.5>
  401e8c:	48 39 05 5d 26 20 00 	cmp    %rax,0x20265d(%rip)        # 6044f0 <infile>
  401e93:	74 29                	je     401ebe <launch+0x5e>
  401e95:	c7 05 5d 26 20 00 00 	movl   $0x0,0x20265d(%rip)        # 6044fc <vlevel>
  401e9c:	00 00 00 
  401e9f:	b8 00 00 00 00       	mov    $0x0,%eax
  401ea4:	e8 c7 fa ff ff       	callq  401970 <test>
  401ea9:	83 3d 58 26 20 00 00 	cmpl   $0x0,0x202658(%rip)        # 604508 <is_checker>
  401eb0:	75 1d                	jne    401ecf <launch+0x6f>
  401eb2:	bf 54 33 40 00       	mov    $0x403354,%edi
  401eb7:	e8 b4 ed ff ff       	callq  400c70 <puts@plt>
  401ebc:	c9                   	leaveq 
  401ebd:	c3                   	retq   
  401ebe:	bf 3c 33 40 00       	mov    $0x40333c,%edi
  401ec3:	b8 00 00 00 00       	mov    $0x0,%eax
  401ec8:	e8 d3 ed ff ff       	callq  400ca0 <printf@plt>
  401ecd:	eb c6                	jmp    401e95 <launch+0x35>
  401ecf:	bf 49 33 40 00       	mov    $0x403349,%edi
  401ed4:	e8 97 ed ff ff       	callq  400c70 <puts@plt>
  401ed9:	b8 00 00 00 00       	mov    $0x0,%eax
  401ede:	e8 b1 fa ff ff       	callq  401994 <check_fail>

0000000000401ee3 <stable_launch>:
  401ee3:	48 83 ec 08          	sub    $0x8,%rsp
  401ee7:	48 89 3d fa 25 20 00 	mov    %rdi,0x2025fa(%rip)        # 6044e8 <global_offset>
  401eee:	41 b9 00 00 00 00    	mov    $0x0,%r9d
  401ef4:	41 b8 00 00 00 00    	mov    $0x0,%r8d
  401efa:	b9 32 01 00 00       	mov    $0x132,%ecx
  401eff:	ba 07 00 00 00       	mov    $0x7,%edx
  401f04:	be 00 00 10 00       	mov    $0x100000,%esi
  401f09:	bf 00 60 58 55       	mov    $0x55586000,%edi
  401f0e:	e8 7d ed ff ff       	callq  400c90 <mmap@plt>
  401f13:	48 3d 00 60 58 55    	cmp    $0x55586000,%rax
  401f19:	75 4a                	jne    401f65 <stable_launch+0x82>
  401f1b:	48 c7 05 0a 32 20 00 	movq   $0x55685ff8,0x20320a(%rip)        # 605130 <stack_top>
  401f22:	f8 5f 68 55 
  401f26:	ba f8 5f 68 55       	mov    $0x55685ff8,%edx
  401f2b:	48 89 e0             	mov    %rsp,%rax
  401f2e:	48 89 d4             	mov    %rdx,%rsp
  401f31:	48 89 c2             	mov    %rax,%rdx
  401f34:	48 89 15 a5 25 20 00 	mov    %rdx,0x2025a5(%rip)        # 6044e0 <global_save_stack>
  401f3b:	48 8b 3d a6 25 20 00 	mov    0x2025a6(%rip),%rdi        # 6044e8 <global_offset>
  401f42:	e8 19 ff ff ff       	callq  401e60 <launch>
  401f47:	48 8b 05 92 25 20 00 	mov    0x202592(%rip),%rax        # 6044e0 <global_save_stack>
  401f4e:	48 89 c4             	mov    %rax,%rsp
  401f51:	be 00 00 10 00       	mov    $0x100000,%esi
  401f56:	bf 00 60 58 55       	mov    $0x55586000,%edi
  401f5b:	e8 00 ee ff ff       	callq  400d60 <munmap@plt>
  401f60:	48 83 c4 08          	add    $0x8,%rsp
  401f64:	c3                   	retq   
  401f65:	be 00 00 10 00       	mov    $0x100000,%esi
  401f6a:	48 89 c7             	mov    %rax,%rdi
  401f6d:	e8 ee ed ff ff       	callq  400d60 <munmap@plt>
  401f72:	ba 00 60 58 55       	mov    $0x55586000,%edx
  401f77:	be 08 35 40 00       	mov    $0x403508,%esi
  401f7c:	48 8b 3d 3d 25 20 00 	mov    0x20253d(%rip),%rdi        # 6044c0 <stderr@@GLIBC_2.2.5>
  401f83:	b8 00 00 00 00       	mov    $0x0,%eax
  401f88:	e8 83 ed ff ff       	callq  400d10 <fprintf@plt>
  401f8d:	bf 01 00 00 00       	mov    $0x1,%edi
  401f92:	e8 39 ee ff ff       	callq  400dd0 <exit@plt>

0000000000401f97 <sigalrm_handler>:
  401f97:	48 83 ec 08          	sub    $0x8,%rsp
  401f9b:	ba 00 00 00 00       	mov    $0x0,%edx
  401fa0:	be 40 35 40 00       	mov    $0x403540,%esi
  401fa5:	48 8b 3d 14 25 20 00 	mov    0x202514(%rip),%rdi        # 6044c0 <stderr@@GLIBC_2.2.5>
  401fac:	b8 00 00 00 00       	mov    $0x0,%eax
  401fb1:	e8 5a ed ff ff       	callq  400d10 <fprintf@plt>
  401fb6:	bf 01 00 00 00       	mov    $0x1,%edi
  401fbb:	e8 10 ee ff ff       	callq  400dd0 <exit@plt>

0000000000401fc0 <rio_readlineb>:
  401fc0:	41 56                	push   %r14
  401fc2:	41 55                	push   %r13
  401fc4:	41 54                	push   %r12
  401fc6:	55                   	push   %rbp
  401fc7:	53                   	push   %rbx
  401fc8:	48 89 f5             	mov    %rsi,%rbp
  401fcb:	48 83 fa 01          	cmp    $0x1,%rdx
  401fcf:	0f 86 9d 00 00 00    	jbe    402072 <rio_readlineb+0xb2>
  401fd5:	48 89 fb             	mov    %rdi,%rbx
  401fd8:	4c 8d 74 16 ff       	lea    -0x1(%rsi,%rdx,1),%r14
  401fdd:	41 bd 01 00 00 00    	mov    $0x1,%r13d
  401fe3:	4c 8d 67 10          	lea    0x10(%rdi),%r12
  401fe7:	eb 17                	jmp    402000 <rio_readlineb+0x40>
  401fe9:	e8 42 ec ff ff       	callq  400c30 <__errno_location@plt>
  401fee:	83 38 04             	cmpl   $0x4,(%rax)
  401ff1:	74 0d                	je     402000 <rio_readlineb+0x40>
  401ff3:	48 c7 c0 ff ff ff ff 	mov    $0xffffffffffffffff,%rax
  401ffa:	eb 28                	jmp    402024 <rio_readlineb+0x64>
  401ffc:	4c 89 63 08          	mov    %r12,0x8(%rbx)
  402000:	8b 43 04             	mov    0x4(%rbx),%eax
  402003:	85 c0                	test   %eax,%eax
  402005:	7f 2e                	jg     402035 <rio_readlineb+0x75>
  402007:	ba 00 20 00 00       	mov    $0x2000,%edx
  40200c:	4c 89 e6             	mov    %r12,%rsi
  40200f:	8b 3b                	mov    (%rbx),%edi
  402011:	e8 ca ec ff ff       	callq  400ce0 <read@plt>
  402016:	89 43 04             	mov    %eax,0x4(%rbx)
  402019:	85 c0                	test   %eax,%eax
  40201b:	78 cc                	js     401fe9 <rio_readlineb+0x29>
  40201d:	75 dd                	jne    401ffc <rio_readlineb+0x3c>
  40201f:	b8 00 00 00 00       	mov    $0x0,%eax
  402024:	85 c0                	test   %eax,%eax
  402026:	75 52                	jne    40207a <rio_readlineb+0xba>
  402028:	b8 00 00 00 00       	mov    $0x0,%eax
  40202d:	49 83 fd 01          	cmp    $0x1,%r13
  402031:	75 2f                	jne    402062 <rio_readlineb+0xa2>
  402033:	eb 34                	jmp    402069 <rio_readlineb+0xa9>
  402035:	48 8b 53 08          	mov    0x8(%rbx),%rdx
  402039:	0f b6 0a             	movzbl (%rdx),%ecx
  40203c:	48 83 c2 01          	add    $0x1,%rdx
  402040:	48 89 53 08          	mov    %rdx,0x8(%rbx)
  402044:	83 e8 01             	sub    $0x1,%eax
  402047:	89 43 04             	mov    %eax,0x4(%rbx)
  40204a:	48 83 c5 01          	add    $0x1,%rbp
  40204e:	88 4d ff             	mov    %cl,-0x1(%rbp)
  402051:	80 f9 0a             	cmp    $0xa,%cl
  402054:	74 0c                	je     402062 <rio_readlineb+0xa2>
  402056:	49 83 c5 01          	add    $0x1,%r13
  40205a:	4c 39 f5             	cmp    %r14,%rbp
  40205d:	75 a1                	jne    402000 <rio_readlineb+0x40>
  40205f:	4c 89 f5             	mov    %r14,%rbp
  402062:	c6 45 00 00          	movb   $0x0,0x0(%rbp)
  402066:	4c 89 e8             	mov    %r13,%rax
  402069:	5b                   	pop    %rbx
  40206a:	5d                   	pop    %rbp
  40206b:	41 5c                	pop    %r12
  40206d:	41 5d                	pop    %r13
  40206f:	41 5e                	pop    %r14
  402071:	c3                   	retq   
  402072:	41 bd 01 00 00 00    	mov    $0x1,%r13d
  402078:	eb e8                	jmp    402062 <rio_readlineb+0xa2>
  40207a:	48 c7 c0 ff ff ff ff 	mov    $0xffffffffffffffff,%rax
  402081:	eb e6                	jmp    402069 <rio_readlineb+0xa9>

0000000000402083 <submitr>:
  402083:	41 57                	push   %r15
  402085:	41 56                	push   %r14
  402087:	41 55                	push   %r13
  402089:	41 54                	push   %r12
  40208b:	55                   	push   %rbp
  40208c:	53                   	push   %rbx
  40208d:	48 81 ec 68 a0 00 00 	sub    $0xa068,%rsp
  402094:	48 89 7c 24 08       	mov    %rdi,0x8(%rsp)
  402099:	89 f5                	mov    %esi,%ebp
  40209b:	48 89 54 24 10       	mov    %rdx,0x10(%rsp)
  4020a0:	48 89 4c 24 18       	mov    %rcx,0x18(%rsp)
  4020a5:	4d 89 c5             	mov    %r8,%r13
  4020a8:	4c 89 cb             	mov    %r9,%rbx
  4020ab:	4c 8b bc 24 a0 a0 00 	mov    0xa0a0(%rsp),%r15
  4020b2:	00 
  4020b3:	c7 84 24 3c 20 00 00 	movl   $0x0,0x203c(%rsp)
  4020ba:	00 00 00 00 
  4020be:	ba 00 00 00 00       	mov    $0x0,%edx
  4020c3:	be 01 00 00 00       	mov    $0x1,%esi
  4020c8:	bf 02 00 00 00       	mov    $0x2,%edi
  4020cd:	e8 2e ed ff ff       	callq  400e00 <socket@plt>
  4020d2:	85 c0                	test   %eax,%eax
  4020d4:	0f 88 34 01 00 00    	js     40220e <submitr+0x18b>
  4020da:	41 89 c4             	mov    %eax,%r12d
  4020dd:	48 8b 7c 24 08       	mov    0x8(%rsp),%rdi
  4020e2:	e8 19 ec ff ff       	callq  400d00 <gethostbyname@plt>
  4020e7:	48 85 c0             	test   %rax,%rax
  4020ea:	0f 84 6e 01 00 00    	je     40225e <submitr+0x1db>
  4020f0:	48 8d b4 24 50 a0 00 	lea    0xa050(%rsp),%rsi
  4020f7:	00 
  4020f8:	48 c7 84 24 52 a0 00 	movq   $0x0,0xa052(%rsp)
  4020ff:	00 00 00 00 00 
  402104:	c7 84 24 5a a0 00 00 	movl   $0x0,0xa05a(%rsp)
  40210b:	00 00 00 00 
  40210f:	66 c7 84 24 5e a0 00 	movw   $0x0,0xa05e(%rsp)
  402116:	00 00 00 
  402119:	66 c7 84 24 50 a0 00 	movw   $0x2,0xa050(%rsp)
  402120:	00 02 00 
  402123:	48 63 50 14          	movslq 0x14(%rax),%rdx
  402127:	48 8b 40 18          	mov    0x18(%rax),%rax
  40212b:	48 8d 7e 04          	lea    0x4(%rsi),%rdi
  40212f:	48 8b 30             	mov    (%rax),%rsi
  402132:	e8 39 ec ff ff       	callq  400d70 <memmove@plt>
  402137:	66 c1 c5 08          	rol    $0x8,%bp
  40213b:	66 89 ac 24 52 a0 00 	mov    %bp,0xa052(%rsp)
  402142:	00 
  402143:	ba 10 00 00 00       	mov    $0x10,%edx
  402148:	48 8d b4 24 50 a0 00 	lea    0xa050(%rsp),%rsi
  40214f:	00 
  402150:	44 89 e7             	mov    %r12d,%edi
  402153:	e8 88 ec ff ff       	callq  400de0 <connect@plt>
  402158:	85 c0                	test   %eax,%eax
  40215a:	0f 88 69 01 00 00    	js     4022c9 <submitr+0x246>
  402160:	49 c7 c1 ff ff ff ff 	mov    $0xffffffffffffffff,%r9
  402167:	b8 00 00 00 00       	mov    $0x0,%eax
  40216c:	4c 89 c9             	mov    %r9,%rcx
  40216f:	48 89 df             	mov    %rbx,%rdi
  402172:	f2 ae                	repnz scas %es:(%rdi),%al
  402174:	48 89 ce             	mov    %rcx,%rsi
  402177:	48 f7 d6             	not    %rsi
  40217a:	4c 89 c9             	mov    %r9,%rcx
  40217d:	48 8b 7c 24 10       	mov    0x10(%rsp),%rdi
  402182:	f2 ae                	repnz scas %es:(%rdi),%al
  402184:	49 89 c8             	mov    %rcx,%r8
  402187:	4c 89 c9             	mov    %r9,%rcx
  40218a:	48 8b 7c 24 18       	mov    0x18(%rsp),%rdi
  40218f:	f2 ae                	repnz scas %es:(%rdi),%al
  402191:	48 f7 d1             	not    %rcx
  402194:	48 89 ca             	mov    %rcx,%rdx
  402197:	4c 89 c9             	mov    %r9,%rcx
  40219a:	4c 89 ef             	mov    %r13,%rdi
  40219d:	f2 ae                	repnz scas %es:(%rdi),%al
  40219f:	4c 29 c2             	sub    %r8,%rdx
  4021a2:	48 29 ca             	sub    %rcx,%rdx
  4021a5:	48 8d 44 76 fd       	lea    -0x3(%rsi,%rsi,2),%rax
  4021aa:	48 8d 44 02 7b       	lea    0x7b(%rdx,%rax,1),%rax
  4021af:	48 3d 00 20 00 00    	cmp    $0x2000,%rax
  4021b5:	0f 87 6b 01 00 00    	ja     402326 <submitr+0x2a3>
  4021bb:	48 8d 94 24 40 40 00 	lea    0x4040(%rsp),%rdx
  4021c2:	00 
  4021c3:	b9 00 04 00 00       	mov    $0x400,%ecx
  4021c8:	b8 00 00 00 00       	mov    $0x0,%eax
  4021cd:	48 89 d7             	mov    %rdx,%rdi
  4021d0:	f3 48 ab             	rep stos %rax,%es:(%rdi)
  4021d3:	48 c7 c1 ff ff ff ff 	mov    $0xffffffffffffffff,%rcx
  4021da:	48 89 df             	mov    %rbx,%rdi
  4021dd:	f2 ae                	repnz scas %es:(%rdi),%al
  4021df:	48 89 ce             	mov    %rcx,%rsi
  4021e2:	48 f7 d6             	not    %rsi
  4021e5:	48 89 f1             	mov    %rsi,%rcx
  4021e8:	48 83 e9 01          	sub    $0x1,%rcx
  4021ec:	85 c9                	test   %ecx,%ecx
  4021ee:	0f 84 38 05 00 00    	je     40272c <submitr+0x6a9>
  4021f4:	8d 41 ff             	lea    -0x1(%rcx),%eax
  4021f7:	4c 8d 74 03 01       	lea    0x1(%rbx,%rax,1),%r14
  4021fc:	48 89 d5             	mov    %rdx,%rbp
  4021ff:	49 bd d9 ff 00 00 00 	movabs $0x2000000000ffd9,%r13
  402206:	00 20 00 
  402209:	e9 a5 01 00 00       	jmpq   4023b3 <submitr+0x330>
  40220e:	48 b8 45 72 72 6f 72 	movabs $0x43203a726f727245,%rax
  402215:	3a 20 43 
  402218:	48 ba 6c 69 65 6e 74 	movabs $0x6e7520746e65696c,%rdx
  40221f:	20 75 6e 
  402222:	49 89 07             	mov    %rax,(%r15)
  402225:	49 89 57 08          	mov    %rdx,0x8(%r15)
  402229:	48 b8 61 62 6c 65 20 	movabs $0x206f7420656c6261,%rax
  402230:	74 6f 20 
  402233:	48 ba 63 72 65 61 74 	movabs $0x7320657461657263,%rdx
  40223a:	65 20 73 
  40223d:	49 89 47 10          	mov    %rax,0x10(%r15)
  402241:	49 89 57 18          	mov    %rdx,0x18(%r15)
  402245:	41 c7 47 20 6f 63 6b 	movl   $0x656b636f,0x20(%r15)
  40224c:	65 
  40224d:	66 41 c7 47 24 74 00 	movw   $0x74,0x24(%r15)
  402254:	b8 ff ff ff ff       	mov    $0xffffffff,%eax
  402259:	e9 54 06 00 00       	jmpq   4028b2 <submitr+0x82f>
  40225e:	48 b8 45 72 72 6f 72 	movabs $0x44203a726f727245,%rax
  402265:	3a 20 44 
  402268:	48 ba 4e 53 20 69 73 	movabs $0x6e7520736920534e,%rdx
  40226f:	20 75 6e 
  402272:	49 89 07             	mov    %rax,(%r15)
  402275:	49 89 57 08          	mov    %rdx,0x8(%r15)
  402279:	48 b8 61 62 6c 65 20 	movabs $0x206f7420656c6261,%rax
  402280:	74 6f 20 
  402283:	48 ba 72 65 73 6f 6c 	movabs $0x2065766c6f736572,%rdx
  40228a:	76 65 20 
  40228d:	49 89 47 10          	mov    %rax,0x10(%r15)
  402291:	49 89 57 18          	mov    %rdx,0x18(%r15)
  402295:	48 b8 73 65 72 76 65 	movabs $0x6120726576726573,%rax
  40229c:	72 20 61 
  40229f:	49 89 47 20          	mov    %rax,0x20(%r15)
  4022a3:	41 c7 47 28 64 64 72 	movl   $0x65726464,0x28(%r15)
  4022aa:	65 
  4022ab:	66 41 c7 47 2c 73 73 	movw   $0x7373,0x2c(%r15)
  4022b2:	41 c6 47 2e 00       	movb   $0x0,0x2e(%r15)
  4022b7:	44 89 e7             	mov    %r12d,%edi
  4022ba:	e8 11 ea ff ff       	callq  400cd0 <close@plt>
  4022bf:	b8 ff ff ff ff       	mov    $0xffffffff,%eax
  4022c4:	e9 e9 05 00 00       	jmpq   4028b2 <submitr+0x82f>
  4022c9:	48 b8 45 72 72 6f 72 	movabs $0x55203a726f727245,%rax
  4022d0:	3a 20 55 
  4022d3:	48 ba 6e 61 62 6c 65 	movabs $0x6f7420656c62616e,%rdx
  4022da:	20 74 6f 
  4022dd:	49 89 07             	mov    %rax,(%r15)
  4022e0:	49 89 57 08          	mov    %rdx,0x8(%r15)
  4022e4:	48 b8 20 63 6f 6e 6e 	movabs $0x7463656e6e6f6320,%rax
  4022eb:	65 63 74 
  4022ee:	48 ba 20 74 6f 20 74 	movabs $0x20656874206f7420,%rdx
  4022f5:	68 65 20 
  4022f8:	49 89 47 10          	mov    %rax,0x10(%r15)
  4022fc:	49 89 57 18          	mov    %rdx,0x18(%r15)
  402300:	41 c7 47 20 73 65 72 	movl   $0x76726573,0x20(%r15)
  402307:	76 
  402308:	66 41 c7 47 24 65 72 	movw   $0x7265,0x24(%r15)
  40230f:	41 c6 47 26 00       	movb   $0x0,0x26(%r15)
  402314:	44 89 e7             	mov    %r12d,%edi
  402317:	e8 b4 e9 ff ff       	callq  400cd0 <close@plt>
  40231c:	b8 ff ff ff ff       	mov    $0xffffffff,%eax
  402321:	e9 8c 05 00 00       	jmpq   4028b2 <submitr+0x82f>
  402326:	48 b8 45 72 72 6f 72 	movabs $0x52203a726f727245,%rax
  40232d:	3a 20 52 
  402330:	48 ba 65 73 75 6c 74 	movabs $0x747320746c757365,%rdx
  402337:	20 73 74 
  40233a:	49 89 07             	mov    %rax,(%r15)
  40233d:	49 89 57 08          	mov    %rdx,0x8(%r15)
  402341:	48 b8 72 69 6e 67 20 	movabs $0x6f6f7420676e6972,%rax
  402348:	74 6f 6f 
  40234b:	48 ba 20 6c 61 72 67 	movabs $0x202e656772616c20,%rdx
  402352:	65 2e 20 
  402355:	49 89 47 10          	mov    %rax,0x10(%r15)
  402359:	49 89 57 18          	mov    %rdx,0x18(%r15)
  40235d:	48 b8 49 6e 63 72 65 	movabs $0x6573616572636e49,%rax
  402364:	61 73 65 
  402367:	48 ba 20 53 55 42 4d 	movabs $0x5254494d42555320,%rdx
  40236e:	49 54 52 
  402371:	49 89 47 20          	mov    %rax,0x20(%r15)
  402375:	49 89 57 28          	mov    %rdx,0x28(%r15)
  402379:	48 b8 5f 4d 41 58 42 	movabs $0x46554258414d5f,%rax
  402380:	55 46 00 
  402383:	49 89 47 30          	mov    %rax,0x30(%r15)
  402387:	44 89 e7             	mov    %r12d,%edi
  40238a:	e8 41 e9 ff ff       	callq  400cd0 <close@plt>
  40238f:	b8 ff ff ff ff       	mov    $0xffffffff,%eax
  402394:	e9 19 05 00 00       	jmpq   4028b2 <submitr+0x82f>
  402399:	49 0f a3 c5          	bt     %rax,%r13
  40239d:	73 1e                	jae    4023bd <submitr+0x33a>
  40239f:	88 55 00             	mov    %dl,0x0(%rbp)
  4023a2:	48 8d 6d 01          	lea    0x1(%rbp),%rbp
  4023a6:	48 83 c3 01          	add    $0x1,%rbx
  4023aa:	4c 39 f3             	cmp    %r14,%rbx
  4023ad:	0f 84 79 03 00 00    	je     40272c <submitr+0x6a9>
  4023b3:	0f b6 13             	movzbl (%rbx),%edx
  4023b6:	8d 42 d6             	lea    -0x2a(%rdx),%eax
  4023b9:	3c 35                	cmp    $0x35,%al
  4023bb:	76 dc                	jbe    402399 <submitr+0x316>
  4023bd:	89 d0                	mov    %edx,%eax
  4023bf:	83 e0 df             	and    $0xffffffdf,%eax
  4023c2:	83 e8 41             	sub    $0x41,%eax
  4023c5:	3c 19                	cmp    $0x19,%al
  4023c7:	76 d6                	jbe    40239f <submitr+0x31c>
  4023c9:	80 fa 20             	cmp    $0x20,%dl
  4023cc:	74 45                	je     402413 <submitr+0x390>
  4023ce:	8d 42 e0             	lea    -0x20(%rdx),%eax
  4023d1:	3c 5f                	cmp    $0x5f,%al
  4023d3:	76 09                	jbe    4023de <submitr+0x35b>
  4023d5:	80 fa 09             	cmp    $0x9,%dl
  4023d8:	0f 85 c1 02 00 00    	jne    40269f <submitr+0x61c>
  4023de:	0f b6 d2             	movzbl %dl,%edx
  4023e1:	be d8 35 40 00       	mov    $0x4035d8,%esi
  4023e6:	48 8d 7c 24 28       	lea    0x28(%rsp),%rdi
  4023eb:	b8 00 00 00 00       	mov    $0x0,%eax
  4023f0:	e8 cb e9 ff ff       	callq  400dc0 <sprintf@plt>
  4023f5:	0f b6 44 24 28       	movzbl 0x28(%rsp),%eax
  4023fa:	88 45 00             	mov    %al,0x0(%rbp)
  4023fd:	0f b6 44 24 29       	movzbl 0x29(%rsp),%eax
  402402:	88 45 01             	mov    %al,0x1(%rbp)
  402405:	0f b6 44 24 2a       	movzbl 0x2a(%rsp),%eax
  40240a:	88 45 02             	mov    %al,0x2(%rbp)
  40240d:	48 8d 6d 03          	lea    0x3(%rbp),%rbp
  402411:	eb 93                	jmp    4023a6 <submitr+0x323>
  402413:	c6 45 00 2b          	movb   $0x2b,0x0(%rbp)
  402417:	48 8d 6d 01          	lea    0x1(%rbp),%rbp
  40241b:	eb 89                	jmp    4023a6 <submitr+0x323>
  40241d:	48 01 c5             	add    %rax,%rbp
  402420:	48 29 c3             	sub    %rax,%rbx
  402423:	0f 84 63 03 00 00    	je     40278c <submitr+0x709>
  402429:	48 89 da             	mov    %rbx,%rdx
  40242c:	48 89 ee             	mov    %rbp,%rsi
  40242f:	44 89 e7             	mov    %r12d,%edi
  402432:	e8 49 e8 ff ff       	callq  400c80 <write@plt>
  402437:	48 85 c0             	test   %rax,%rax
  40243a:	7f e1                	jg     40241d <submitr+0x39a>
  40243c:	e8 ef e7 ff ff       	callq  400c30 <__errno_location@plt>
  402441:	83 38 04             	cmpl   $0x4,(%rax)
  402444:	0f 85 e4 01 00 00    	jne    40262e <submitr+0x5ab>
  40244a:	4c 89 e8             	mov    %r13,%rax
  40244d:	eb ce                	jmp    40241d <submitr+0x39a>
  40244f:	48 b8 45 72 72 6f 72 	movabs $0x43203a726f727245,%rax
  402456:	3a 20 43 
  402459:	48 ba 6c 69 65 6e 74 	movabs $0x6e7520746e65696c,%rdx
  402460:	20 75 6e 
  402463:	49 89 07             	mov    %rax,(%r15)
  402466:	49 89 57 08          	mov    %rdx,0x8(%r15)
  40246a:	48 b8 61 62 6c 65 20 	movabs $0x206f7420656c6261,%rax
  402471:	74 6f 20 
  402474:	48 ba 72 65 61 64 20 	movabs $0x7269662064616572,%rdx
  40247b:	66 69 72 
  40247e:	49 89 47 10          	mov    %rax,0x10(%r15)
  402482:	49 89 57 18          	mov    %rdx,0x18(%r15)
  402486:	48 b8 73 74 20 68 65 	movabs $0x6564616568207473,%rax
  40248d:	61 64 65 
  402490:	48 ba 72 20 66 72 6f 	movabs $0x72206d6f72662072,%rdx
  402497:	6d 20 72 
  40249a:	49 89 47 20          	mov    %rax,0x20(%r15)
  40249e:	49 89 57 28          	mov    %rdx,0x28(%r15)
  4024a2:	48 b8 65 73 75 6c 74 	movabs $0x657320746c757365,%rax
  4024a9:	20 73 65 
  4024ac:	49 89 47 30          	mov    %rax,0x30(%r15)
  4024b0:	41 c7 47 38 72 76 65 	movl   $0x72657672,0x38(%r15)
  4024b7:	72 
  4024b8:	41 c6 47 3c 00       	movb   $0x0,0x3c(%r15)
  4024bd:	44 89 e7             	mov    %r12d,%edi
  4024c0:	e8 0b e8 ff ff       	callq  400cd0 <close@plt>
  4024c5:	b8 ff ff ff ff       	mov    $0xffffffff,%eax
  4024ca:	e9 e3 03 00 00       	jmpq   4028b2 <submitr+0x82f>
  4024cf:	ba 00 20 00 00       	mov    $0x2000,%edx
  4024d4:	48 8d b4 24 40 60 00 	lea    0x6040(%rsp),%rsi
  4024db:	00 
  4024dc:	48 8d bc 24 40 80 00 	lea    0x8040(%rsp),%rdi
  4024e3:	00 
  4024e4:	e8 d7 fa ff ff       	callq  401fc0 <rio_readlineb>
  4024e9:	48 85 c0             	test   %rax,%rax
  4024ec:	0f 8e 8c 00 00 00    	jle    40257e <submitr+0x4fb>
  4024f2:	8b 94 24 3c 20 00 00 	mov    0x203c(%rsp),%edx
  4024f9:	81 fa c8 00 00 00    	cmp    $0xc8,%edx
  4024ff:	0f 85 00 01 00 00    	jne    402605 <submitr+0x582>
  402505:	48 8d b4 24 40 60 00 	lea    0x6040(%rsp),%rsi
  40250c:	00 
  40250d:	4c 89 ff             	mov    %r15,%rdi
  402510:	e8 4b e7 ff ff       	callq  400c60 <strcpy@plt>
  402515:	44 89 e7             	mov    %r12d,%edi
  402518:	e8 b3 e7 ff ff       	callq  400cd0 <close@plt>
  40251d:	bf f0 35 40 00       	mov    $0x4035f0,%edi
  402522:	b9 04 00 00 00       	mov    $0x4,%ecx
  402527:	4c 89 fe             	mov    %r15,%rsi
  40252a:	f3 a6                	repz cmpsb %es:(%rdi),%ds:(%rsi)
  40252c:	0f 97 c0             	seta   %al
  40252f:	1c 00                	sbb    $0x0,%al
  402531:	0f be c0             	movsbl %al,%eax
  402534:	85 c0                	test   %eax,%eax
  402536:	0f 84 76 03 00 00    	je     4028b2 <submitr+0x82f>
  40253c:	bf f4 35 40 00       	mov    $0x4035f4,%edi
  402541:	b9 05 00 00 00       	mov    $0x5,%ecx
  402546:	4c 89 fe             	mov    %r15,%rsi
  402549:	f3 a6                	repz cmpsb %es:(%rdi),%ds:(%rsi)
  40254b:	0f 97 c0             	seta   %al
  40254e:	1c 00                	sbb    $0x0,%al
  402550:	0f be c0             	movsbl %al,%eax
  402553:	85 c0                	test   %eax,%eax
  402555:	0f 84 57 03 00 00    	je     4028b2 <submitr+0x82f>
  40255b:	bf f9 35 40 00       	mov    $0x4035f9,%edi
  402560:	b9 03 00 00 00       	mov    $0x3,%ecx
  402565:	4c 89 fe             	mov    %r15,%rsi
  402568:	f3 a6                	repz cmpsb %es:(%rdi),%ds:(%rsi)
  40256a:	0f 97 c0             	seta   %al
  40256d:	1c 00                	sbb    $0x0,%al
  40256f:	84 c0                	test   %al,%al
  402571:	0f 95 c0             	setne  %al
  402574:	0f b6 c0             	movzbl %al,%eax
  402577:	f7 d8                	neg    %eax
  402579:	e9 34 03 00 00       	jmpq   4028b2 <submitr+0x82f>
  40257e:	48 b8 45 72 72 6f 72 	movabs $0x43203a726f727245,%rax
  402585:	3a 20 43 
  402588:	48 ba 6c 69 65 6e 74 	movabs $0x6e7520746e65696c,%rdx
  40258f:	20 75 6e 
  402592:	49 89 07             	mov    %rax,(%r15)
  402595:	49 89 57 08          	mov    %rdx,0x8(%r15)
  402599:	48 b8 61 62 6c 65 20 	movabs $0x206f7420656c6261,%rax
  4025a0:	74 6f 20 
  4025a3:	48 ba 72 65 61 64 20 	movabs $0x6174732064616572,%rdx
  4025aa:	73 74 61 
  4025ad:	49 89 47 10          	mov    %rax,0x10(%r15)
  4025b1:	49 89 57 18          	mov    %rdx,0x18(%r15)
  4025b5:	48 b8 74 75 73 20 6d 	movabs $0x7373656d20737574,%rax
  4025bc:	65 73 73 
  4025bf:	48 ba 61 67 65 20 66 	movabs $0x6d6f726620656761,%rdx
  4025c6:	72 6f 6d 
  4025c9:	49 89 47 20          	mov    %rax,0x20(%r15)
  4025cd:	49 89 57 28          	mov    %rdx,0x28(%r15)
  4025d1:	48 b8 20 72 65 73 75 	movabs $0x20746c7573657220,%rax
  4025d8:	6c 74 20 
  4025db:	49 89 47 30          	mov    %rax,0x30(%r15)
  4025df:	41 c7 47 38 73 65 72 	movl   $0x76726573,0x38(%r15)
  4025e6:	76 
  4025e7:	66 41 c7 47 3c 65 72 	movw   $0x7265,0x3c(%r15)
  4025ee:	41 c6 47 3e 00       	movb   $0x0,0x3e(%r15)
  4025f3:	44 89 e7             	mov    %r12d,%edi
  4025f6:	e8 d5 e6 ff ff       	callq  400cd0 <close@plt>
  4025fb:	b8 ff ff ff ff       	mov    $0xffffffff,%eax
  402600:	e9 ad 02 00 00       	jmpq   4028b2 <submitr+0x82f>
  402605:	48 8d 4c 24 30       	lea    0x30(%rsp),%rcx
  40260a:	be 68 35 40 00       	mov    $0x403568,%esi
  40260f:	4c 89 ff             	mov    %r15,%rdi
  402612:	b8 00 00 00 00       	mov    $0x0,%eax
  402617:	e8 a4 e7 ff ff       	callq  400dc0 <sprintf@plt>
  40261c:	44 89 e7             	mov    %r12d,%edi
  40261f:	e8 ac e6 ff ff       	callq  400cd0 <close@plt>
  402624:	b8 ff ff ff ff       	mov    $0xffffffff,%eax
  402629:	e9 84 02 00 00       	jmpq   4028b2 <submitr+0x82f>
  40262e:	48 b8 45 72 72 6f 72 	movabs $0x43203a726f727245,%rax
  402635:	3a 20 43 
  402638:	48 ba 6c 69 65 6e 74 	movabs $0x6e7520746e65696c,%rdx
  40263f:	20 75 6e 
  402642:	49 89 07             	mov    %rax,(%r15)
  402645:	49 89 57 08          	mov    %rdx,0x8(%r15)
  402649:	48 b8 61 62 6c 65 20 	movabs $0x206f7420656c6261,%rax
  402650:	74 6f 20 
  402653:	48 ba 77 72 69 74 65 	movabs $0x6f74206574697277,%rdx
  40265a:	20 74 6f 
  40265d:	49 89 47 10          	mov    %rax,0x10(%r15)
  402661:	49 89 57 18          	mov    %rdx,0x18(%r15)
  402665:	48 b8 20 74 68 65 20 	movabs $0x7365722065687420,%rax
  40266c:	72 65 73 
  40266f:	48 ba 75 6c 74 20 73 	movabs $0x7672657320746c75,%rdx
  402676:	65 72 76 
  402679:	49 89 47 20          	mov    %rax,0x20(%r15)
  40267d:	49 89 57 28          	mov    %rdx,0x28(%r15)
  402681:	66 41 c7 47 30 65 72 	movw   $0x7265,0x30(%r15)
  402688:	41 c6 47 32 00       	movb   $0x0,0x32(%r15)
  40268d:	44 89 e7             	mov    %r12d,%edi
  402690:	e8 3b e6 ff ff       	callq  400cd0 <close@plt>
  402695:	b8 ff ff ff ff       	mov    $0xffffffff,%eax
  40269a:	e9 13 02 00 00       	jmpq   4028b2 <submitr+0x82f>
  40269f:	48 b8 45 72 72 6f 72 	movabs $0x52203a726f727245,%rax
  4026a6:	3a 20 52 
  4026a9:	48 ba 65 73 75 6c 74 	movabs $0x747320746c757365,%rdx
  4026b0:	20 73 74 
  4026b3:	49 89 07             	mov    %rax,(%r15)
  4026b6:	49 89 57 08          	mov    %rdx,0x8(%r15)
  4026ba:	48 b8 72 69 6e 67 20 	movabs $0x6e6f6320676e6972,%rax
  4026c1:	63 6f 6e 
  4026c4:	48 ba 74 61 69 6e 73 	movabs $0x6e6120736e696174,%rdx
  4026cb:	20 61 6e 
  4026ce:	49 89 47 10          	mov    %rax,0x10(%r15)
  4026d2:	49 89 57 18          	mov    %rdx,0x18(%r15)
  4026d6:	48 b8 20 69 6c 6c 65 	movabs $0x6c6167656c6c6920,%rax
  4026dd:	67 61 6c 
  4026e0:	48 ba 20 6f 72 20 75 	movabs $0x72706e7520726f20,%rdx
  4026e7:	6e 70 72 
  4026ea:	49 89 47 20          	mov    %rax,0x20(%r15)
  4026ee:	49 89 57 28          	mov    %rdx,0x28(%r15)
  4026f2:	48 b8 69 6e 74 61 62 	movabs $0x20656c6261746e69,%rax
  4026f9:	6c 65 20 
  4026fc:	48 ba 63 68 61 72 61 	movabs $0x6574636172616863,%rdx
  402703:	63 74 65 
  402706:	49 89 47 30          	mov    %rax,0x30(%r15)
  40270a:	49 89 57 38          	mov    %rdx,0x38(%r15)
  40270e:	66 41 c7 47 40 72 2e 	movw   $0x2e72,0x40(%r15)
  402715:	41 c6 47 42 00       	movb   $0x0,0x42(%r15)
  40271a:	44 89 e7             	mov    %r12d,%edi
  40271d:	e8 ae e5 ff ff       	callq  400cd0 <close@plt>
  402722:	b8 ff ff ff ff       	mov    $0xffffffff,%eax
  402727:	e9 86 01 00 00       	jmpq   4028b2 <submitr+0x82f>
  40272c:	48 8d ac 24 40 60 00 	lea    0x6040(%rsp),%rbp
  402733:	00 
  402734:	4c 8b 4c 24 08       	mov    0x8(%rsp),%r9
  402739:	4c 8d 84 24 40 40 00 	lea    0x4040(%rsp),%r8
  402740:	00 
  402741:	48 8b 4c 24 10       	mov    0x10(%rsp),%rcx
  402746:	48 8b 54 24 18       	mov    0x18(%rsp),%rdx
  40274b:	be 98 35 40 00       	mov    $0x403598,%esi
  402750:	48 89 ef             	mov    %rbp,%rdi
  402753:	b8 00 00 00 00       	mov    $0x0,%eax
  402758:	e8 63 e6 ff ff       	callq  400dc0 <sprintf@plt>
  40275d:	48 c7 c1 ff ff ff ff 	mov    $0xffffffffffffffff,%rcx
  402764:	b8 00 00 00 00       	mov    $0x0,%eax
  402769:	48 89 ef             	mov    %rbp,%rdi
  40276c:	f2 ae                	repnz scas %es:(%rdi),%al
  40276e:	48 f7 d1             	not    %rcx
  402771:	48 8d ac 24 40 60 00 	lea    0x6040(%rsp),%rbp
  402778:	00 
  402779:	41 bd 00 00 00 00    	mov    $0x0,%r13d
  40277f:	48 83 e9 01          	sub    $0x1,%rcx
  402783:	48 89 cb             	mov    %rcx,%rbx
  402786:	0f 85 9d fc ff ff    	jne    402429 <submitr+0x3a6>
  40278c:	44 89 a4 24 40 80 00 	mov    %r12d,0x8040(%rsp)
  402793:	00 
  402794:	c7 84 24 44 80 00 00 	movl   $0x0,0x8044(%rsp)
  40279b:	00 00 00 00 
  40279f:	48 8d 84 24 50 80 00 	lea    0x8050(%rsp),%rax
  4027a6:	00 
  4027a7:	48 89 84 24 48 80 00 	mov    %rax,0x8048(%rsp)
  4027ae:	00 
  4027af:	ba 00 20 00 00       	mov    $0x2000,%edx
  4027b4:	48 8d b4 24 40 60 00 	lea    0x6040(%rsp),%rsi
  4027bb:	00 
  4027bc:	48 8d bc 24 40 80 00 	lea    0x8040(%rsp),%rdi
  4027c3:	00 
  4027c4:	e8 f7 f7 ff ff       	callq  401fc0 <rio_readlineb>
  4027c9:	48 85 c0             	test   %rax,%rax
  4027cc:	0f 8e 7d fc ff ff    	jle    40244f <submitr+0x3cc>
  4027d2:	4c 8d 44 24 30       	lea    0x30(%rsp),%r8
  4027d7:	48 8d 8c 24 3c 20 00 	lea    0x203c(%rsp),%rcx
  4027de:	00 
  4027df:	48 8d 94 24 40 20 00 	lea    0x2040(%rsp),%rdx
  4027e6:	00 
  4027e7:	be df 35 40 00       	mov    $0x4035df,%esi
  4027ec:	48 8d bc 24 40 60 00 	lea    0x6040(%rsp),%rdi
  4027f3:	00 
  4027f4:	b8 00 00 00 00       	mov    $0x0,%eax
  4027f9:	e8 52 e5 ff ff       	callq  400d50 <__isoc99_sscanf@plt>
  4027fe:	48 8d 9c 24 40 60 00 	lea    0x6040(%rsp),%rbx
  402805:	00 
  402806:	bf f6 35 40 00       	mov    $0x4035f6,%edi
  40280b:	b9 03 00 00 00       	mov    $0x3,%ecx
  402810:	48 89 de             	mov    %rbx,%rsi
  402813:	f3 a6                	repz cmpsb %es:(%rdi),%ds:(%rsi)
  402815:	0f 97 c0             	seta   %al
  402818:	1c 00                	sbb    $0x0,%al
  40281a:	84 c0                	test   %al,%al
  40281c:	0f 84 ad fc ff ff    	je     4024cf <submitr+0x44c>
  402822:	ba 00 20 00 00       	mov    $0x2000,%edx
  402827:	48 89 de             	mov    %rbx,%rsi
  40282a:	48 8d bc 24 40 80 00 	lea    0x8040(%rsp),%rdi
  402831:	00 
  402832:	e8 89 f7 ff ff       	callq  401fc0 <rio_readlineb>
  402837:	48 85 c0             	test   %rax,%rax
  40283a:	7f ca                	jg     402806 <submitr+0x783>
  40283c:	48 b8 45 72 72 6f 72 	movabs $0x43203a726f727245,%rax
  402843:	3a 20 43 
  402846:	48 ba 6c 69 65 6e 74 	movabs $0x6e7520746e65696c,%rdx
  40284d:	20 75 6e 
  402850:	49 89 07             	mov    %rax,(%r15)
  402853:	49 89 57 08          	mov    %rdx,0x8(%r15)
  402857:	48 b8 61 62 6c 65 20 	movabs $0x206f7420656c6261,%rax
  40285e:	74 6f 20 
  402861:	48 ba 72 65 61 64 20 	movabs $0x6165682064616572,%rdx
  402868:	68 65 61 
  40286b:	49 89 47 10          	mov    %rax,0x10(%r15)
  40286f:	49 89 57 18          	mov    %rdx,0x18(%r15)
  402873:	48 b8 64 65 72 73 20 	movabs $0x6f72662073726564,%rax
  40287a:	66 72 6f 
  40287d:	48 ba 6d 20 74 68 65 	movabs $0x657220656874206d,%rdx
  402884:	20 72 65 
  402887:	49 89 47 20          	mov    %rax,0x20(%r15)
  40288b:	49 89 57 28          	mov    %rdx,0x28(%r15)
  40288f:	48 b8 73 75 6c 74 20 	movabs $0x72657320746c7573,%rax
  402896:	73 65 72 
  402899:	49 89 47 30          	mov    %rax,0x30(%r15)
  40289d:	41 c7 47 38 76 65 72 	movl   $0x726576,0x38(%r15)
  4028a4:	00 
  4028a5:	44 89 e7             	mov    %r12d,%edi
  4028a8:	e8 23 e4 ff ff       	callq  400cd0 <close@plt>
  4028ad:	b8 ff ff ff ff       	mov    $0xffffffff,%eax
  4028b2:	48 81 c4 68 a0 00 00 	add    $0xa068,%rsp
  4028b9:	5b                   	pop    %rbx
  4028ba:	5d                   	pop    %rbp
  4028bb:	41 5c                	pop    %r12
  4028bd:	41 5d                	pop    %r13
  4028bf:	41 5e                	pop    %r14
  4028c1:	41 5f                	pop    %r15
  4028c3:	c3                   	retq   

00000000004028c4 <init_timeout>:
  4028c4:	85 ff                	test   %edi,%edi
  4028c6:	74 23                	je     4028eb <init_timeout+0x27>
  4028c8:	53                   	push   %rbx
  4028c9:	89 fb                	mov    %edi,%ebx
  4028cb:	be 97 1f 40 00       	mov    $0x401f97,%esi
  4028d0:	bf 0e 00 00 00       	mov    $0xe,%edi
  4028d5:	e8 16 e4 ff ff       	callq  400cf0 <signal@plt>
  4028da:	85 db                	test   %ebx,%ebx
  4028dc:	bf 00 00 00 00       	mov    $0x0,%edi
  4028e1:	0f 49 fb             	cmovns %ebx,%edi
  4028e4:	e8 d7 e3 ff ff       	callq  400cc0 <alarm@plt>
  4028e9:	5b                   	pop    %rbx
  4028ea:	c3                   	retq   
  4028eb:	c3                   	retq   

00000000004028ec <init_driver>:
  4028ec:	55                   	push   %rbp
  4028ed:	53                   	push   %rbx
  4028ee:	48 83 ec 18          	sub    $0x18,%rsp
  4028f2:	48 89 fd             	mov    %rdi,%rbp
  4028f5:	be 01 00 00 00       	mov    $0x1,%esi
  4028fa:	bf 0d 00 00 00       	mov    $0xd,%edi
  4028ff:	e8 ec e3 ff ff       	callq  400cf0 <signal@plt>
  402904:	be 01 00 00 00       	mov    $0x1,%esi
  402909:	bf 1d 00 00 00       	mov    $0x1d,%edi
  40290e:	e8 dd e3 ff ff       	callq  400cf0 <signal@plt>
  402913:	be 01 00 00 00       	mov    $0x1,%esi
  402918:	bf 1d 00 00 00       	mov    $0x1d,%edi
  40291d:	e8 ce e3 ff ff       	callq  400cf0 <signal@plt>
  402922:	ba 00 00 00 00       	mov    $0x0,%edx
  402927:	be 01 00 00 00       	mov    $0x1,%esi
  40292c:	bf 02 00 00 00       	mov    $0x2,%edi
  402931:	e8 ca e4 ff ff       	callq  400e00 <socket@plt>
  402936:	85 c0                	test   %eax,%eax
  402938:	0f 88 83 00 00 00    	js     4029c1 <init_driver+0xd5>
  40293e:	89 c3                	mov    %eax,%ebx
  402940:	bf d0 2f 40 00       	mov    $0x402fd0,%edi
  402945:	e8 b6 e3 ff ff       	callq  400d00 <gethostbyname@plt>
  40294a:	48 85 c0             	test   %rax,%rax
  40294d:	0f 84 ba 00 00 00    	je     402a0d <init_driver+0x121>
  402953:	48 c7 44 24 02 00 00 	movq   $0x0,0x2(%rsp)
  40295a:	00 00 
  40295c:	c7 44 24 0a 00 00 00 	movl   $0x0,0xa(%rsp)
  402963:	00 
  402964:	66 c7 44 24 0e 00 00 	movw   $0x0,0xe(%rsp)
  40296b:	66 c7 04 24 02 00    	movw   $0x2,(%rsp)
  402971:	48 63 50 14          	movslq 0x14(%rax),%rdx
  402975:	48 8b 40 18          	mov    0x18(%rax),%rax
  402979:	48 8d 7c 24 04       	lea    0x4(%rsp),%rdi
  40297e:	48 8b 30             	mov    (%rax),%rsi
  402981:	e8 ea e3 ff ff       	callq  400d70 <memmove@plt>
  402986:	66 c7 44 24 02 3c 9a 	movw   $0x9a3c,0x2(%rsp)
  40298d:	ba 10 00 00 00       	mov    $0x10,%edx
  402992:	48 89 e6             	mov    %rsp,%rsi
  402995:	89 df                	mov    %ebx,%edi
  402997:	e8 44 e4 ff ff       	callq  400de0 <connect@plt>
  40299c:	85 c0                	test   %eax,%eax
  40299e:	0f 88 d1 00 00 00    	js     402a75 <init_driver+0x189>
  4029a4:	89 df                	mov    %ebx,%edi
  4029a6:	e8 25 e3 ff ff       	callq  400cd0 <close@plt>
  4029ab:	66 c7 45 00 4f 4b    	movw   $0x4b4f,0x0(%rbp)
  4029b1:	c6 45 02 00          	movb   $0x0,0x2(%rbp)
  4029b5:	b8 00 00 00 00       	mov    $0x0,%eax
  4029ba:	48 83 c4 18          	add    $0x18,%rsp
  4029be:	5b                   	pop    %rbx
  4029bf:	5d                   	pop    %rbp
  4029c0:	c3                   	retq   
  4029c1:	48 b8 45 72 72 6f 72 	movabs $0x43203a726f727245,%rax
  4029c8:	3a 20 43 
  4029cb:	48 ba 6c 69 65 6e 74 	movabs $0x6e7520746e65696c,%rdx
  4029d2:	20 75 6e 
  4029d5:	48 89 45 00          	mov    %rax,0x0(%rbp)
  4029d9:	48 89 55 08          	mov    %rdx,0x8(%rbp)
  4029dd:	48 b8 61 62 6c 65 20 	movabs $0x206f7420656c6261,%rax
  4029e4:	74 6f 20 
  4029e7:	48 ba 63 72 65 61 74 	movabs $0x7320657461657263,%rdx
  4029ee:	65 20 73 
  4029f1:	48 89 45 10          	mov    %rax,0x10(%rbp)
  4029f5:	48 89 55 18          	mov    %rdx,0x18(%rbp)
  4029f9:	c7 45 20 6f 63 6b 65 	movl   $0x656b636f,0x20(%rbp)
  402a00:	66 c7 45 24 74 00    	movw   $0x74,0x24(%rbp)
  402a06:	b8 ff ff ff ff       	mov    $0xffffffff,%eax
  402a0b:	eb ad                	jmp    4029ba <init_driver+0xce>
  402a0d:	48 b8 45 72 72 6f 72 	movabs $0x44203a726f727245,%rax
  402a14:	3a 20 44 
  402a17:	48 ba 4e 53 20 69 73 	movabs $0x6e7520736920534e,%rdx
  402a1e:	20 75 6e 
  402a21:	48 89 45 00          	mov    %rax,0x0(%rbp)
  402a25:	48 89 55 08          	mov    %rdx,0x8(%rbp)
  402a29:	48 b8 61 62 6c 65 20 	movabs $0x206f7420656c6261,%rax
  402a30:	74 6f 20 
  402a33:	48 ba 72 65 73 6f 6c 	movabs $0x2065766c6f736572,%rdx
  402a3a:	76 65 20 
  402a3d:	48 89 45 10          	mov    %rax,0x10(%rbp)
  402a41:	48 89 55 18          	mov    %rdx,0x18(%rbp)
  402a45:	48 b8 73 65 72 76 65 	movabs $0x6120726576726573,%rax
  402a4c:	72 20 61 
  402a4f:	48 89 45 20          	mov    %rax,0x20(%rbp)
  402a53:	c7 45 28 64 64 72 65 	movl   $0x65726464,0x28(%rbp)
  402a5a:	66 c7 45 2c 73 73    	movw   $0x7373,0x2c(%rbp)
  402a60:	c6 45 2e 00          	movb   $0x0,0x2e(%rbp)
  402a64:	89 df                	mov    %ebx,%edi
  402a66:	e8 65 e2 ff ff       	callq  400cd0 <close@plt>
  402a6b:	b8 ff ff ff ff       	mov    $0xffffffff,%eax
  402a70:	e9 45 ff ff ff       	jmpq   4029ba <init_driver+0xce>
  402a75:	48 b8 45 72 72 6f 72 	movabs $0x55203a726f727245,%rax
  402a7c:	3a 20 55 
  402a7f:	48 ba 6e 61 62 6c 65 	movabs $0x6f7420656c62616e,%rdx
  402a86:	20 74 6f 
  402a89:	48 89 45 00          	mov    %rax,0x0(%rbp)
  402a8d:	48 89 55 08          	mov    %rdx,0x8(%rbp)
  402a91:	48 b8 20 63 6f 6e 6e 	movabs $0x7463656e6e6f6320,%rax
  402a98:	65 63 74 
  402a9b:	48 ba 20 74 6f 20 73 	movabs $0x76726573206f7420,%rdx
  402aa2:	65 72 76 
  402aa5:	48 89 45 10          	mov    %rax,0x10(%rbp)
  402aa9:	48 89 55 18          	mov    %rdx,0x18(%rbp)
  402aad:	66 c7 45 20 65 72    	movw   $0x7265,0x20(%rbp)
  402ab3:	c6 45 22 00          	movb   $0x0,0x22(%rbp)
  402ab7:	89 df                	mov    %ebx,%edi
  402ab9:	e8 12 e2 ff ff       	callq  400cd0 <close@plt>
  402abe:	b8 ff ff ff ff       	mov    $0xffffffff,%eax
  402ac3:	e9 f2 fe ff ff       	jmpq   4029ba <init_driver+0xce>

0000000000402ac8 <driver_post>:
  402ac8:	53                   	push   %rbx
  402ac9:	4c 89 cb             	mov    %r9,%rbx
  402acc:	45 85 c0             	test   %r8d,%r8d
  402acf:	75 18                	jne    402ae9 <driver_post+0x21>
  402ad1:	48 85 ff             	test   %rdi,%rdi
  402ad4:	74 05                	je     402adb <driver_post+0x13>
  402ad6:	80 3f 00             	cmpb   $0x0,(%rdi)
  402ad9:	75 30                	jne    402b0b <driver_post+0x43>
  402adb:	66 c7 03 4f 4b       	movw   $0x4b4f,(%rbx)
  402ae0:	c6 43 02 00          	movb   $0x0,0x2(%rbx)
  402ae4:	44 89 c0             	mov    %r8d,%eax
  402ae7:	5b                   	pop    %rbx
  402ae8:	c3                   	retq   
  402ae9:	48 89 ce             	mov    %rcx,%rsi
  402aec:	bf fc 35 40 00       	mov    $0x4035fc,%edi
  402af1:	b8 00 00 00 00       	mov    $0x0,%eax
  402af6:	e8 a5 e1 ff ff       	callq  400ca0 <printf@plt>
  402afb:	66 c7 03 4f 4b       	movw   $0x4b4f,(%rbx)
  402b00:	c6 43 02 00          	movb   $0x0,0x2(%rbx)
  402b04:	b8 00 00 00 00       	mov    $0x0,%eax
  402b09:	eb dc                	jmp    402ae7 <driver_post+0x1f>
  402b0b:	48 83 ec 08          	sub    $0x8,%rsp
  402b0f:	41 51                	push   %r9
  402b11:	49 89 c9             	mov    %rcx,%r9
  402b14:	49 89 d0             	mov    %rdx,%r8
  402b17:	48 89 f9             	mov    %rdi,%rcx
  402b1a:	48 89 f2             	mov    %rsi,%rdx
  402b1d:	be 9a 3c 00 00       	mov    $0x3c9a,%esi
  402b22:	bf d0 2f 40 00       	mov    $0x402fd0,%edi
  402b27:	e8 57 f5 ff ff       	callq  402083 <submitr>
  402b2c:	48 83 c4 10          	add    $0x10,%rsp
  402b30:	eb b5                	jmp    402ae7 <driver_post+0x1f>

0000000000402b32 <check>:
  402b32:	b8 00 00 00 00       	mov    $0x0,%eax
  402b37:	89 fa                	mov    %edi,%edx
  402b39:	c1 ea 1c             	shr    $0x1c,%edx
  402b3c:	74 29                	je     402b67 <check+0x35>
  402b3e:	40 80 ff 0a          	cmp    $0xa,%dil
  402b42:	74 18                	je     402b5c <check+0x2a>
  402b44:	89 f8                	mov    %edi,%eax
  402b46:	0f b6 c4             	movzbl %ah,%eax
  402b49:	83 f8 0a             	cmp    $0xa,%eax
  402b4c:	74 14                	je     402b62 <check+0x30>
  402b4e:	c1 ef 10             	shr    $0x10,%edi
  402b51:	40 80 ff 0a          	cmp    $0xa,%dil
  402b55:	0f 95 c0             	setne  %al
  402b58:	0f b6 c0             	movzbl %al,%eax
  402b5b:	c3                   	retq   
  402b5c:	b8 00 00 00 00       	mov    $0x0,%eax
  402b61:	c3                   	retq   
  402b62:	b8 00 00 00 00       	mov    $0x0,%eax
  402b67:	c3                   	retq   

0000000000402b68 <gencookie>:
  402b68:	53                   	push   %rbx
  402b69:	83 c7 01             	add    $0x1,%edi
  402b6c:	e8 cf e0 ff ff       	callq  400c40 <srandom@plt>
  402b71:	e8 ca e1 ff ff       	callq  400d40 <random@plt>
  402b76:	89 c3                	mov    %eax,%ebx
  402b78:	89 c7                	mov    %eax,%edi
  402b7a:	e8 b3 ff ff ff       	callq  402b32 <check>
  402b7f:	85 c0                	test   %eax,%eax
  402b81:	74 ee                	je     402b71 <gencookie+0x9>
  402b83:	89 d8                	mov    %ebx,%eax
  402b85:	5b                   	pop    %rbx
  402b86:	c3                   	retq   
  402b87:	66 0f 1f 84 00 00 00 	nopw   0x0(%rax,%rax,1)
  402b8e:	00 00 

0000000000402b90 <__libc_csu_init>:
  402b90:	f3 0f 1e fa          	endbr64 
  402b94:	41 57                	push   %r15
  402b96:	49 89 d7             	mov    %rdx,%r15
  402b99:	41 56                	push   %r14
  402b9b:	49 89 f6             	mov    %rsi,%r14
  402b9e:	41 55                	push   %r13
  402ba0:	41 89 fd             	mov    %edi,%r13d
  402ba3:	41 54                	push   %r12
  402ba5:	4c 8d 25 54 12 20 00 	lea    0x201254(%rip),%r12        # 603e00 <__frame_dummy_init_array_entry>
  402bac:	55                   	push   %rbp
  402bad:	48 8d 2d 54 12 20 00 	lea    0x201254(%rip),%rbp        # 603e08 <__init_array_end>
  402bb4:	53                   	push   %rbx
  402bb5:	4c 29 e5             	sub    %r12,%rbp
  402bb8:	48 83 ec 08          	sub    $0x8,%rsp
  402bbc:	e8 2f e0 ff ff       	callq  400bf0 <_init>
  402bc1:	48 c1 fd 03          	sar    $0x3,%rbp
  402bc5:	74 1f                	je     402be6 <__libc_csu_init+0x56>
  402bc7:	31 db                	xor    %ebx,%ebx
  402bc9:	0f 1f 80 00 00 00 00 	nopl   0x0(%rax)
  402bd0:	4c 89 fa             	mov    %r15,%rdx
  402bd3:	4c 89 f6             	mov    %r14,%rsi
  402bd6:	44 89 ef             	mov    %r13d,%edi
  402bd9:	41 ff 14 dc          	callq  *(%r12,%rbx,8)
  402bdd:	48 83 c3 01          	add    $0x1,%rbx
  402be1:	48 39 dd             	cmp    %rbx,%rbp
  402be4:	75 ea                	jne    402bd0 <__libc_csu_init+0x40>
  402be6:	48 83 c4 08          	add    $0x8,%rsp
  402bea:	5b                   	pop    %rbx
  402beb:	5d                   	pop    %rbp
  402bec:	41 5c                	pop    %r12
  402bee:	41 5d                	pop    %r13
  402bf0:	41 5e                	pop    %r14
  402bf2:	41 5f                	pop    %r15
  402bf4:	c3                   	retq   

0000000000402bf5 <.annobin___libc_csu_fini.start>:
  402bf5:	66 66 2e 0f 1f 84 00 	data16 nopw %cs:0x0(%rax,%rax,1)
  402bfc:	00 00 00 00 

0000000000402c00 <__libc_csu_fini>:
  402c00:	f3 0f 1e fa          	endbr64 
  402c04:	c3                   	retq   

Disassembly of section .fini:

0000000000402c08 <_fini>:
  402c08:	f3 0f 1e fa          	endbr64 
  402c0c:	48 83 ec 08          	sub    $0x8,%rsp
  402c10:	48 83 c4 08          	add    $0x8,%rsp
  402c14:	c3                   	retq   
