
rtarget:     file format elf64-x86-64


Disassembly of section .init:

0000000000400bf0 <_init>:
  400bf0:	f3 0f 1e fa          	endbr64 
  400bf4:	48 83 ec 08          	sub    $0x8,%rsp
  400bf8:	48 8b 05 f1 43 20 00 	mov    0x2043f1(%rip),%rax        # 604ff0 <__gmon_start__@Base>
  400bff:	48 85 c0             	test   %rax,%rax
  400c02:	74 02                	je     400c06 <_init+0x16>
  400c04:	ff d0                	callq  *%rax
  400c06:	48 83 c4 08          	add    $0x8,%rsp
  400c0a:	c3                   	retq   

Disassembly of section .plt:

0000000000400c10 <.plt>:
  400c10:	ff 35 f2 43 20 00    	pushq  0x2043f2(%rip)        # 605008 <_GLOBAL_OFFSET_TABLE_+0x8>
  400c16:	ff 25 f4 43 20 00    	jmpq   *0x2043f4(%rip)        # 605010 <_GLOBAL_OFFSET_TABLE_+0x10>
  400c1c:	0f 1f 40 00          	nopl   0x0(%rax)

0000000000400c20 <strcasecmp@plt>:
  400c20:	ff 25 f2 43 20 00    	jmpq   *0x2043f2(%rip)        # 605018 <strcasecmp@GLIBC_2.2.5>
  400c26:	68 00 00 00 00       	pushq  $0x0
  400c2b:	e9 e0 ff ff ff       	jmpq   400c10 <.plt>

0000000000400c30 <__errno_location@plt>:
  400c30:	ff 25 ea 43 20 00    	jmpq   *0x2043ea(%rip)        # 605020 <__errno_location@GLIBC_2.2.5>
  400c36:	68 01 00 00 00       	pushq  $0x1
  400c3b:	e9 d0 ff ff ff       	jmpq   400c10 <.plt>

0000000000400c40 <srandom@plt>:
  400c40:	ff 25 e2 43 20 00    	jmpq   *0x2043e2(%rip)        # 605028 <srandom@GLIBC_2.2.5>
  400c46:	68 02 00 00 00       	pushq  $0x2
  400c4b:	e9 c0 ff ff ff       	jmpq   400c10 <.plt>

0000000000400c50 <strncmp@plt>:
  400c50:	ff 25 da 43 20 00    	jmpq   *0x2043da(%rip)        # 605030 <strncmp@GLIBC_2.2.5>
  400c56:	68 03 00 00 00       	pushq  $0x3
  400c5b:	e9 b0 ff ff ff       	jmpq   400c10 <.plt>

0000000000400c60 <strcpy@plt>:
  400c60:	ff 25 d2 43 20 00    	jmpq   *0x2043d2(%rip)        # 605038 <strcpy@GLIBC_2.2.5>
  400c66:	68 04 00 00 00       	pushq  $0x4
  400c6b:	e9 a0 ff ff ff       	jmpq   400c10 <.plt>

0000000000400c70 <puts@plt>:
  400c70:	ff 25 ca 43 20 00    	jmpq   *0x2043ca(%rip)        # 605040 <puts@GLIBC_2.2.5>
  400c76:	68 05 00 00 00       	pushq  $0x5
  400c7b:	e9 90 ff ff ff       	jmpq   400c10 <.plt>

0000000000400c80 <write@plt>:
  400c80:	ff 25 c2 43 20 00    	jmpq   *0x2043c2(%rip)        # 605048 <write@GLIBC_2.2.5>
  400c86:	68 06 00 00 00       	pushq  $0x6
  400c8b:	e9 80 ff ff ff       	jmpq   400c10 <.plt>

0000000000400c90 <mmap@plt>:
  400c90:	ff 25 ba 43 20 00    	jmpq   *0x2043ba(%rip)        # 605050 <mmap@GLIBC_2.2.5>
  400c96:	68 07 00 00 00       	pushq  $0x7
  400c9b:	e9 70 ff ff ff       	jmpq   400c10 <.plt>

0000000000400ca0 <printf@plt>:
  400ca0:	ff 25 b2 43 20 00    	jmpq   *0x2043b2(%rip)        # 605058 <printf@GLIBC_2.2.5>
  400ca6:	68 08 00 00 00       	pushq  $0x8
  400cab:	e9 60 ff ff ff       	jmpq   400c10 <.plt>

0000000000400cb0 <memset@plt>:
  400cb0:	ff 25 aa 43 20 00    	jmpq   *0x2043aa(%rip)        # 605060 <memset@GLIBC_2.2.5>
  400cb6:	68 09 00 00 00       	pushq  $0x9
  400cbb:	e9 50 ff ff ff       	jmpq   400c10 <.plt>

0000000000400cc0 <alarm@plt>:
  400cc0:	ff 25 a2 43 20 00    	jmpq   *0x2043a2(%rip)        # 605068 <alarm@GLIBC_2.2.5>
  400cc6:	68 0a 00 00 00       	pushq  $0xa
  400ccb:	e9 40 ff ff ff       	jmpq   400c10 <.plt>

0000000000400cd0 <close@plt>:
  400cd0:	ff 25 9a 43 20 00    	jmpq   *0x20439a(%rip)        # 605070 <close@GLIBC_2.2.5>
  400cd6:	68 0b 00 00 00       	pushq  $0xb
  400cdb:	e9 30 ff ff ff       	jmpq   400c10 <.plt>

0000000000400ce0 <read@plt>:
  400ce0:	ff 25 92 43 20 00    	jmpq   *0x204392(%rip)        # 605078 <read@GLIBC_2.2.5>
  400ce6:	68 0c 00 00 00       	pushq  $0xc
  400ceb:	e9 20 ff ff ff       	jmpq   400c10 <.plt>

0000000000400cf0 <signal@plt>:
  400cf0:	ff 25 8a 43 20 00    	jmpq   *0x20438a(%rip)        # 605080 <signal@GLIBC_2.2.5>
  400cf6:	68 0d 00 00 00       	pushq  $0xd
  400cfb:	e9 10 ff ff ff       	jmpq   400c10 <.plt>

0000000000400d00 <gethostbyname@plt>:
  400d00:	ff 25 82 43 20 00    	jmpq   *0x204382(%rip)        # 605088 <gethostbyname@GLIBC_2.2.5>
  400d06:	68 0e 00 00 00       	pushq  $0xe
  400d0b:	e9 00 ff ff ff       	jmpq   400c10 <.plt>

0000000000400d10 <fprintf@plt>:
  400d10:	ff 25 7a 43 20 00    	jmpq   *0x20437a(%rip)        # 605090 <fprintf@GLIBC_2.2.5>
  400d16:	68 0f 00 00 00       	pushq  $0xf
  400d1b:	e9 f0 fe ff ff       	jmpq   400c10 <.plt>

0000000000400d20 <strtol@plt>:
  400d20:	ff 25 72 43 20 00    	jmpq   *0x204372(%rip)        # 605098 <strtol@GLIBC_2.2.5>
  400d26:	68 10 00 00 00       	pushq  $0x10
  400d2b:	e9 e0 fe ff ff       	jmpq   400c10 <.plt>

0000000000400d30 <time@plt>:
  400d30:	ff 25 6a 43 20 00    	jmpq   *0x20436a(%rip)        # 6050a0 <time@GLIBC_2.2.5>
  400d36:	68 11 00 00 00       	pushq  $0x11
  400d3b:	e9 d0 fe ff ff       	jmpq   400c10 <.plt>

0000000000400d40 <random@plt>:
  400d40:	ff 25 62 43 20 00    	jmpq   *0x204362(%rip)        # 6050a8 <random@GLIBC_2.2.5>
  400d46:	68 12 00 00 00       	pushq  $0x12
  400d4b:	e9 c0 fe ff ff       	jmpq   400c10 <.plt>

0000000000400d50 <__isoc99_sscanf@plt>:
  400d50:	ff 25 5a 43 20 00    	jmpq   *0x20435a(%rip)        # 6050b0 <__isoc99_sscanf@GLIBC_2.7>
  400d56:	68 13 00 00 00       	pushq  $0x13
  400d5b:	e9 b0 fe ff ff       	jmpq   400c10 <.plt>

0000000000400d60 <munmap@plt>:
  400d60:	ff 25 52 43 20 00    	jmpq   *0x204352(%rip)        # 6050b8 <munmap@GLIBC_2.2.5>
  400d66:	68 14 00 00 00       	pushq  $0x14
  400d6b:	e9 a0 fe ff ff       	jmpq   400c10 <.plt>

0000000000400d70 <memmove@plt>:
  400d70:	ff 25 4a 43 20 00    	jmpq   *0x20434a(%rip)        # 6050c0 <memmove@GLIBC_2.2.5>
  400d76:	68 15 00 00 00       	pushq  $0x15
  400d7b:	e9 90 fe ff ff       	jmpq   400c10 <.plt>

0000000000400d80 <fopen@plt>:
  400d80:	ff 25 42 43 20 00    	jmpq   *0x204342(%rip)        # 6050c8 <fopen@GLIBC_2.2.5>
  400d86:	68 16 00 00 00       	pushq  $0x16
  400d8b:	e9 80 fe ff ff       	jmpq   400c10 <.plt>

0000000000400d90 <getopt@plt>:
  400d90:	ff 25 3a 43 20 00    	jmpq   *0x20433a(%rip)        # 6050d0 <getopt@GLIBC_2.2.5>
  400d96:	68 17 00 00 00       	pushq  $0x17
  400d9b:	e9 70 fe ff ff       	jmpq   400c10 <.plt>

0000000000400da0 <strtoul@plt>:
  400da0:	ff 25 32 43 20 00    	jmpq   *0x204332(%rip)        # 6050d8 <strtoul@GLIBC_2.2.5>
  400da6:	68 18 00 00 00       	pushq  $0x18
  400dab:	e9 60 fe ff ff       	jmpq   400c10 <.plt>

0000000000400db0 <gethostname@plt>:
  400db0:	ff 25 2a 43 20 00    	jmpq   *0x20432a(%rip)        # 6050e0 <gethostname@GLIBC_2.2.5>
  400db6:	68 19 00 00 00       	pushq  $0x19
  400dbb:	e9 50 fe ff ff       	jmpq   400c10 <.plt>

0000000000400dc0 <sprintf@plt>:
  400dc0:	ff 25 22 43 20 00    	jmpq   *0x204322(%rip)        # 6050e8 <sprintf@GLIBC_2.2.5>
  400dc6:	68 1a 00 00 00       	pushq  $0x1a
  400dcb:	e9 40 fe ff ff       	jmpq   400c10 <.plt>

0000000000400dd0 <exit@plt>:
  400dd0:	ff 25 1a 43 20 00    	jmpq   *0x20431a(%rip)        # 6050f0 <exit@GLIBC_2.2.5>
  400dd6:	68 1b 00 00 00       	pushq  $0x1b
  400ddb:	e9 30 fe ff ff       	jmpq   400c10 <.plt>

0000000000400de0 <connect@plt>:
  400de0:	ff 25 12 43 20 00    	jmpq   *0x204312(%rip)        # 6050f8 <connect@GLIBC_2.2.5>
  400de6:	68 1c 00 00 00       	pushq  $0x1c
  400deb:	e9 20 fe ff ff       	jmpq   400c10 <.plt>

0000000000400df0 <getc@plt>:
  400df0:	ff 25 0a 43 20 00    	jmpq   *0x20430a(%rip)        # 605100 <getc@GLIBC_2.2.5>
  400df6:	68 1d 00 00 00       	pushq  $0x1d
  400dfb:	e9 10 fe ff ff       	jmpq   400c10 <.plt>

0000000000400e00 <socket@plt>:
  400e00:	ff 25 02 43 20 00    	jmpq   *0x204302(%rip)        # 605108 <socket@GLIBC_2.2.5>
  400e06:	68 1e 00 00 00       	pushq  $0x1e
  400e0b:	e9 00 fe ff ff       	jmpq   400c10 <.plt>

Disassembly of section .text:

0000000000400e10 <_start>:
  400e10:	f3 0f 1e fa          	endbr64 
  400e14:	31 ed                	xor    %ebp,%ebp
  400e16:	49 89 d1             	mov    %rdx,%r9
  400e19:	5e                   	pop    %rsi
  400e1a:	48 89 e2             	mov    %rsp,%rdx
  400e1d:	48 83 e4 f0          	and    $0xfffffffffffffff0,%rsp
  400e21:	50                   	push   %rax
  400e22:	54                   	push   %rsp
  400e23:	49 c7 c0 20 2d 40 00 	mov    $0x402d20,%r8
  400e2a:	48 c7 c1 b0 2c 40 00 	mov    $0x402cb0,%rcx
  400e31:	48 c7 c7 bb 10 40 00 	mov    $0x4010bb,%rdi
  400e38:	ff 15 aa 41 20 00    	callq  *0x2041aa(%rip)        # 604fe8 <__libc_start_main@GLIBC_2.2.5>
  400e3e:	f4                   	hlt    

0000000000400e3f <.annobin_init.c>:
  400e3f:	90                   	nop

0000000000400e40 <_dl_relocate_static_pie>:
  400e40:	f3 0f 1e fa          	endbr64 
  400e44:	c3                   	retq   

0000000000400e45 <.annobin__dl_relocate_static_pie.end>:
  400e45:	66 2e 0f 1f 84 00 00 	nopw   %cs:0x0(%rax,%rax,1)
  400e4c:	00 00 00 
  400e4f:	90                   	nop

0000000000400e50 <deregister_tm_clones>:
  400e50:	48 8d 3d 39 46 20 00 	lea    0x204639(%rip),%rdi        # 605490 <__TMC_END__>
  400e57:	48 8d 05 32 46 20 00 	lea    0x204632(%rip),%rax        # 605490 <__TMC_END__>
  400e5e:	48 39 f8             	cmp    %rdi,%rax
  400e61:	74 15                	je     400e78 <deregister_tm_clones+0x28>
  400e63:	48 8b 05 76 41 20 00 	mov    0x204176(%rip),%rax        # 604fe0 <_ITM_deregisterTMCloneTable@Base>
  400e6a:	48 85 c0             	test   %rax,%rax
  400e6d:	74 09                	je     400e78 <deregister_tm_clones+0x28>
  400e6f:	ff e0                	jmpq   *%rax
  400e71:	0f 1f 80 00 00 00 00 	nopl   0x0(%rax)
  400e78:	c3                   	retq   
  400e79:	0f 1f 80 00 00 00 00 	nopl   0x0(%rax)

0000000000400e80 <register_tm_clones>:
  400e80:	48 8d 3d 09 46 20 00 	lea    0x204609(%rip),%rdi        # 605490 <__TMC_END__>
  400e87:	48 8d 35 02 46 20 00 	lea    0x204602(%rip),%rsi        # 605490 <__TMC_END__>
  400e8e:	48 29 fe             	sub    %rdi,%rsi
  400e91:	48 c1 fe 03          	sar    $0x3,%rsi
  400e95:	48 89 f0             	mov    %rsi,%rax
  400e98:	48 c1 e8 3f          	shr    $0x3f,%rax
  400e9c:	48 01 c6             	add    %rax,%rsi
  400e9f:	48 d1 fe             	sar    %rsi
  400ea2:	74 14                	je     400eb8 <register_tm_clones+0x38>
  400ea4:	48 8b 05 4d 41 20 00 	mov    0x20414d(%rip),%rax        # 604ff8 <_ITM_registerTMCloneTable@Base>
  400eab:	48 85 c0             	test   %rax,%rax
  400eae:	74 08                	je     400eb8 <register_tm_clones+0x38>
  400eb0:	ff e0                	jmpq   *%rax
  400eb2:	66 0f 1f 44 00 00    	nopw   0x0(%rax,%rax,1)
  400eb8:	c3                   	retq   
  400eb9:	0f 1f 80 00 00 00 00 	nopl   0x0(%rax)

0000000000400ec0 <__do_global_dtors_aux>:
  400ec0:	f3 0f 1e fa          	endbr64 
  400ec4:	80 3d fd 45 20 00 00 	cmpb   $0x0,0x2045fd(%rip)        # 6054c8 <completed.7303>
  400ecb:	75 13                	jne    400ee0 <__do_global_dtors_aux+0x20>
  400ecd:	55                   	push   %rbp
  400ece:	48 89 e5             	mov    %rsp,%rbp
  400ed1:	e8 7a ff ff ff       	callq  400e50 <deregister_tm_clones>
  400ed6:	c6 05 eb 45 20 00 01 	movb   $0x1,0x2045eb(%rip)        # 6054c8 <completed.7303>
  400edd:	5d                   	pop    %rbp
  400ede:	c3                   	retq   
  400edf:	90                   	nop
  400ee0:	c3                   	retq   
  400ee1:	66 66 2e 0f 1f 84 00 	data16 nopw %cs:0x0(%rax,%rax,1)
  400ee8:	00 00 00 00 
  400eec:	0f 1f 40 00          	nopl   0x0(%rax)

0000000000400ef0 <frame_dummy>:
  400ef0:	f3 0f 1e fa          	endbr64 
  400ef4:	eb 8a                	jmp    400e80 <register_tm_clones>

0000000000400ef6 <usage>:
  400ef6:	48 83 ec 08          	sub    $0x8,%rsp
  400efa:	48 89 fe             	mov    %rdi,%rsi
  400efd:	83 3d 04 46 20 00 00 	cmpl   $0x0,0x204604(%rip)        # 605508 <is_checker>
  400f04:	74 41                	je     400f47 <usage+0x51>
  400f06:	bf 50 2d 40 00       	mov    $0x402d50,%edi
  400f0b:	b8 00 00 00 00       	mov    $0x0,%eax
  400f10:	e8 8b fd ff ff       	callq  400ca0 <printf@plt>
  400f15:	bf 88 2d 40 00       	mov    $0x402d88,%edi
  400f1a:	e8 51 fd ff ff       	callq  400c70 <puts@plt>
  400f1f:	bf 00 2f 40 00       	mov    $0x402f00,%edi
  400f24:	e8 47 fd ff ff       	callq  400c70 <puts@plt>
  400f29:	bf b0 2d 40 00       	mov    $0x402db0,%edi
  400f2e:	e8 3d fd ff ff       	callq  400c70 <puts@plt>
  400f33:	bf 1a 2f 40 00       	mov    $0x402f1a,%edi
  400f38:	e8 33 fd ff ff       	callq  400c70 <puts@plt>
  400f3d:	bf 00 00 00 00       	mov    $0x0,%edi
  400f42:	e8 89 fe ff ff       	callq  400dd0 <exit@plt>
  400f47:	bf 36 2f 40 00       	mov    $0x402f36,%edi
  400f4c:	b8 00 00 00 00       	mov    $0x0,%eax
  400f51:	e8 4a fd ff ff       	callq  400ca0 <printf@plt>
  400f56:	bf d8 2d 40 00       	mov    $0x402dd8,%edi
  400f5b:	e8 10 fd ff ff       	callq  400c70 <puts@plt>
  400f60:	bf 00 2e 40 00       	mov    $0x402e00,%edi
  400f65:	e8 06 fd ff ff       	callq  400c70 <puts@plt>
  400f6a:	bf 54 2f 40 00       	mov    $0x402f54,%edi
  400f6f:	e8 fc fc ff ff       	callq  400c70 <puts@plt>
  400f74:	eb c7                	jmp    400f3d <usage+0x47>

0000000000400f76 <initialize_target>:
  400f76:	55                   	push   %rbp
  400f77:	53                   	push   %rbx
  400f78:	48 81 ec 08 21 00 00 	sub    $0x2108,%rsp
  400f7f:	89 f5                	mov    %esi,%ebp
  400f81:	89 3d 71 45 20 00    	mov    %edi,0x204571(%rip)        # 6054f8 <check_level>
  400f87:	8b 3d bb 41 20 00    	mov    0x2041bb(%rip),%edi        # 605148 <target_id>
  400f8d:	e8 f8 1c 00 00       	callq  402c8a <gencookie>
  400f92:	89 05 6c 45 20 00    	mov    %eax,0x20456c(%rip)        # 605504 <cookie>
  400f98:	89 c7                	mov    %eax,%edi
  400f9a:	e8 eb 1c 00 00       	callq  402c8a <gencookie>
  400f9f:	89 05 5b 45 20 00    	mov    %eax,0x20455b(%rip)        # 605500 <authkey>
  400fa5:	8b 05 9d 41 20 00    	mov    0x20419d(%rip),%eax        # 605148 <target_id>
  400fab:	8d 78 01             	lea    0x1(%rax),%edi
  400fae:	e8 8d fc ff ff       	callq  400c40 <srandom@plt>
  400fb3:	e8 88 fd ff ff       	callq  400d40 <random@plt>
  400fb8:	89 c7                	mov    %eax,%edi
  400fba:	e8 b8 02 00 00       	callq  401277 <scramble>
  400fbf:	89 c3                	mov    %eax,%ebx
  400fc1:	b8 00 00 00 00       	mov    $0x0,%eax
  400fc6:	85 ed                	test   %ebp,%ebp
  400fc8:	75 38                	jne    401002 <initialize_target+0x8c>
  400fca:	01 d8                	add    %ebx,%eax
  400fcc:	0f b7 c0             	movzwl %ax,%eax
  400fcf:	8d 04 c5 00 01 00 00 	lea    0x100(,%rax,8),%eax
  400fd6:	89 c0                	mov    %eax,%eax
  400fd8:	48 89 05 a1 44 20 00 	mov    %rax,0x2044a1(%rip)        # 605480 <buf_offset>
  400fdf:	c6 05 42 51 20 00 72 	movb   $0x72,0x205142(%rip)        # 606128 <target_prefix>
  400fe6:	83 3d 9b 44 20 00 00 	cmpl   $0x0,0x20449b(%rip)        # 605488 <notify>
  400fed:	74 09                	je     400ff8 <initialize_target+0x82>
  400fef:	83 3d 12 45 20 00 00 	cmpl   $0x0,0x204512(%rip)        # 605508 <is_checker>
  400ff6:	74 22                	je     40101a <initialize_target+0xa4>
  400ff8:	48 81 c4 08 21 00 00 	add    $0x2108,%rsp
  400fff:	5b                   	pop    %rbx
  401000:	5d                   	pop    %rbp
  401001:	c3                   	retq   
  401002:	bf 00 00 00 00       	mov    $0x0,%edi
  401007:	e8 24 fd ff ff       	callq  400d30 <time@plt>
  40100c:	89 c7                	mov    %eax,%edi
  40100e:	e8 2d fc ff ff       	callq  400c40 <srandom@plt>
  401013:	e8 28 fd ff ff       	callq  400d40 <random@plt>
  401018:	eb b0                	jmp    400fca <initialize_target+0x54>
  40101a:	be 00 01 00 00       	mov    $0x100,%esi
  40101f:	48 89 e7             	mov    %rsp,%rdi
  401022:	e8 89 fd ff ff       	callq  400db0 <gethostname@plt>
  401027:	85 c0                	test   %eax,%eax
  401029:	75 46                	jne    401071 <initialize_target+0xfb>
  40102b:	48 8b 3d 2e 41 20 00 	mov    0x20412e(%rip),%rdi        # 605160 <host_table>
  401032:	bb 68 51 60 00       	mov    $0x605168,%ebx
  401037:	48 85 ff             	test   %rdi,%rdi
  40103a:	74 19                	je     401055 <initialize_target+0xdf>
  40103c:	48 89 e6             	mov    %rsp,%rsi
  40103f:	e8 dc fb ff ff       	callq  400c20 <strcasecmp@plt>
  401044:	85 c0                	test   %eax,%eax
  401046:	74 3d                	je     401085 <initialize_target+0x10f>
  401048:	48 83 c3 08          	add    $0x8,%rbx
  40104c:	48 8b 7b f8          	mov    -0x8(%rbx),%rdi
  401050:	48 85 ff             	test   %rdi,%rdi
  401053:	75 e7                	jne    40103c <initialize_target+0xc6>
  401055:	48 89 e6             	mov    %rsp,%rsi
  401058:	bf 90 2e 40 00       	mov    $0x402e90,%edi
  40105d:	b8 00 00 00 00       	mov    $0x0,%eax
  401062:	e8 39 fc ff ff       	callq  400ca0 <printf@plt>
  401067:	bf 08 00 00 00       	mov    $0x8,%edi
  40106c:	e8 5f fd ff ff       	callq  400dd0 <exit@plt>
  401071:	bf 30 2e 40 00       	mov    $0x402e30,%edi
  401076:	e8 f5 fb ff ff       	callq  400c70 <puts@plt>
  40107b:	bf 08 00 00 00       	mov    $0x8,%edi
  401080:	e8 4b fd ff ff       	callq  400dd0 <exit@plt>
  401085:	48 8d bc 24 00 01 00 	lea    0x100(%rsp),%rdi
  40108c:	00 
  40108d:	e8 7c 19 00 00       	callq  402a0e <init_driver>
  401092:	85 c0                	test   %eax,%eax
  401094:	0f 89 5e ff ff ff    	jns    400ff8 <initialize_target+0x82>
  40109a:	48 8d b4 24 00 01 00 	lea    0x100(%rsp),%rsi
  4010a1:	00 
  4010a2:	bf 68 2e 40 00       	mov    $0x402e68,%edi
  4010a7:	b8 00 00 00 00       	mov    $0x0,%eax
  4010ac:	e8 ef fb ff ff       	callq  400ca0 <printf@plt>
  4010b1:	bf 08 00 00 00       	mov    $0x8,%edi
  4010b6:	e8 15 fd ff ff       	callq  400dd0 <exit@plt>

00000000004010bb <main>:
  4010bb:	41 56                	push   %r14
  4010bd:	41 55                	push   %r13
  4010bf:	41 54                	push   %r12
  4010c1:	55                   	push   %rbp
  4010c2:	53                   	push   %rbx
  4010c3:	41 89 fc             	mov    %edi,%r12d
  4010c6:	48 89 f5             	mov    %rsi,%rbp
  4010c9:	be 98 1e 40 00       	mov    $0x401e98,%esi
  4010ce:	bf 0b 00 00 00       	mov    $0xb,%edi
  4010d3:	e8 18 fc ff ff       	callq  400cf0 <signal@plt>
  4010d8:	be 4a 1e 40 00       	mov    $0x401e4a,%esi
  4010dd:	bf 07 00 00 00       	mov    $0x7,%edi
  4010e2:	e8 09 fc ff ff       	callq  400cf0 <signal@plt>
  4010e7:	be e6 1e 40 00       	mov    $0x401ee6,%esi
  4010ec:	bf 04 00 00 00       	mov    $0x4,%edi
  4010f1:	e8 fa fb ff ff       	callq  400cf0 <signal@plt>
  4010f6:	bb 6d 2f 40 00       	mov    $0x402f6d,%ebx
  4010fb:	83 3d 06 44 20 00 00 	cmpl   $0x0,0x204406(%rip)        # 605508 <is_checker>
  401102:	75 1f                	jne    401123 <main+0x68>
  401104:	48 8b 05 95 43 20 00 	mov    0x204395(%rip),%rax        # 6054a0 <stdin@@GLIBC_2.2.5>
  40110b:	48 89 05 de 43 20 00 	mov    %rax,0x2043de(%rip)        # 6054f0 <infile>
  401112:	41 bd 00 00 00 00    	mov    $0x0,%r13d
  401118:	41 be 00 00 00 00    	mov    $0x0,%r14d
  40111e:	e9 81 00 00 00       	jmpq   4011a4 <main+0xe9>
  401123:	be 34 1f 40 00       	mov    $0x401f34,%esi
  401128:	bf 0e 00 00 00       	mov    $0xe,%edi
  40112d:	e8 be fb ff ff       	callq  400cf0 <signal@plt>
  401132:	bf 05 00 00 00       	mov    $0x5,%edi
  401137:	e8 84 fb ff ff       	callq  400cc0 <alarm@plt>
  40113c:	bb 72 2f 40 00       	mov    $0x402f72,%ebx
  401141:	eb c1                	jmp    401104 <main+0x49>
  401143:	48 8b 7d 00          	mov    0x0(%rbp),%rdi
  401147:	e8 aa fd ff ff       	callq  400ef6 <usage>
  40114c:	be 15 34 40 00       	mov    $0x403415,%esi
  401151:	48 8b 3d 50 43 20 00 	mov    0x204350(%rip),%rdi        # 6054a8 <optarg@@GLIBC_2.2.5>
  401158:	e8 23 fc ff ff       	callq  400d80 <fopen@plt>
  40115d:	48 89 05 8c 43 20 00 	mov    %rax,0x20438c(%rip)        # 6054f0 <infile>
  401164:	48 85 c0             	test   %rax,%rax
  401167:	75 3b                	jne    4011a4 <main+0xe9>
  401169:	48 8b 15 38 43 20 00 	mov    0x204338(%rip),%rdx        # 6054a8 <optarg@@GLIBC_2.2.5>
  401170:	be 7a 2f 40 00       	mov    $0x402f7a,%esi
  401175:	48 8b 3d 44 43 20 00 	mov    0x204344(%rip),%rdi        # 6054c0 <stderr@@GLIBC_2.2.5>
  40117c:	e8 8f fb ff ff       	callq  400d10 <fprintf@plt>
  401181:	b8 01 00 00 00       	mov    $0x1,%eax
  401186:	e9 c5 00 00 00       	jmpq   401250 <main+0x195>
  40118b:	ba 10 00 00 00       	mov    $0x10,%edx
  401190:	be 00 00 00 00       	mov    $0x0,%esi
  401195:	48 8b 3d 0c 43 20 00 	mov    0x20430c(%rip),%rdi        # 6054a8 <optarg@@GLIBC_2.2.5>
  40119c:	e8 ff fb ff ff       	callq  400da0 <strtoul@plt>
  4011a1:	41 89 c6             	mov    %eax,%r14d
  4011a4:	48 89 da             	mov    %rbx,%rdx
  4011a7:	48 89 ee             	mov    %rbp,%rsi
  4011aa:	44 89 e7             	mov    %r12d,%edi
  4011ad:	e8 de fb ff ff       	callq  400d90 <getopt@plt>
  4011b2:	89 c2                	mov    %eax,%edx
  4011b4:	3c ff                	cmp    $0xff,%al
  4011b6:	74 53                	je     40120b <main+0x150>
  4011b8:	83 e8 61             	sub    $0x61,%eax
  4011bb:	3c 10                	cmp    $0x10,%al
  4011bd:	77 31                	ja     4011f0 <main+0x135>
  4011bf:	0f b6 c0             	movzbl %al,%eax
  4011c2:	ff 24 c5 b8 2f 40 00 	jmpq   *0x402fb8(,%rax,8)
  4011c9:	ba 0a 00 00 00       	mov    $0xa,%edx
  4011ce:	be 00 00 00 00       	mov    $0x0,%esi
  4011d3:	48 8b 3d ce 42 20 00 	mov    0x2042ce(%rip),%rdi        # 6054a8 <optarg@@GLIBC_2.2.5>
  4011da:	e8 41 fb ff ff       	callq  400d20 <strtol@plt>
  4011df:	41 89 c5             	mov    %eax,%r13d
  4011e2:	eb c0                	jmp    4011a4 <main+0xe9>
  4011e4:	c7 05 9a 42 20 00 00 	movl   $0x0,0x20429a(%rip)        # 605488 <notify>
  4011eb:	00 00 00 
  4011ee:	eb b4                	jmp    4011a4 <main+0xe9>
  4011f0:	0f be f2             	movsbl %dl,%esi
  4011f3:	bf 97 2f 40 00       	mov    $0x402f97,%edi
  4011f8:	b8 00 00 00 00       	mov    $0x0,%eax
  4011fd:	e8 9e fa ff ff       	callq  400ca0 <printf@plt>
  401202:	48 8b 7d 00          	mov    0x0(%rbp),%rdi
  401206:	e8 eb fc ff ff       	callq  400ef6 <usage>
  40120b:	be 01 00 00 00       	mov    $0x1,%esi
  401210:	44 89 ef             	mov    %r13d,%edi
  401213:	e8 5e fd ff ff       	callq  400f76 <initialize_target>
  401218:	83 3d e9 42 20 00 00 	cmpl   $0x0,0x2042e9(%rip)        # 605508 <is_checker>
  40121f:	74 09                	je     40122a <main+0x16f>
  401221:	44 39 35 d8 42 20 00 	cmp    %r14d,0x2042d8(%rip)        # 605500 <authkey>
  401228:	75 2f                	jne    401259 <main+0x19e>
  40122a:	8b 35 d4 42 20 00    	mov    0x2042d4(%rip),%esi        # 605504 <cookie>
  401230:	bf aa 2f 40 00       	mov    $0x402faa,%edi
  401235:	b8 00 00 00 00       	mov    $0x0,%eax
  40123a:	e8 61 fa ff ff       	callq  400ca0 <printf@plt>
  40123f:	48 8b 3d 3a 42 20 00 	mov    0x20423a(%rip),%rdi        # 605480 <buf_offset>
  401246:	e8 37 0d 00 00       	callq  401f82 <launch>
  40124b:	b8 00 00 00 00       	mov    $0x0,%eax
  401250:	5b                   	pop    %rbx
  401251:	5d                   	pop    %rbp
  401252:	41 5c                	pop    %r12
  401254:	41 5d                	pop    %r13
  401256:	41 5e                	pop    %r14
  401258:	c3                   	retq   
  401259:	44 89 f6             	mov    %r14d,%esi
  40125c:	bf d0 2e 40 00       	mov    $0x402ed0,%edi
  401261:	b8 00 00 00 00       	mov    $0x0,%eax
  401266:	e8 35 fa ff ff       	callq  400ca0 <printf@plt>
  40126b:	b8 00 00 00 00       	mov    $0x0,%eax
  401270:	e8 41 08 00 00       	callq  401ab6 <check_fail>
  401275:	eb b3                	jmp    40122a <main+0x16f>

0000000000401277 <scramble>:
  401277:	b8 00 00 00 00       	mov    $0x0,%eax
  40127c:	89 c2                	mov    %eax,%edx
  40127e:	89 7c 94 d0          	mov    %edi,-0x30(%rsp,%rdx,4)
  401282:	83 c0 01             	add    $0x1,%eax
  401285:	81 c7 0f 56 00 00    	add    $0x560f,%edi
  40128b:	83 f8 0a             	cmp    $0xa,%eax
  40128e:	75 ec                	jne    40127c <scramble+0x5>
  401290:	8b 44 24 d8          	mov    -0x28(%rsp),%eax
  401294:	69 c0 3a cd 00 00    	imul   $0xcd3a,%eax,%eax
  40129a:	89 44 24 d8          	mov    %eax,-0x28(%rsp)
  40129e:	8b 44 24 d4          	mov    -0x2c(%rsp),%eax
  4012a2:	69 c0 60 c5 00 00    	imul   $0xc560,%eax,%eax
  4012a8:	89 44 24 d4          	mov    %eax,-0x2c(%rsp)
  4012ac:	8b 44 24 e8          	mov    -0x18(%rsp),%eax
  4012b0:	69 c0 e3 65 00 00    	imul   $0x65e3,%eax,%eax
  4012b6:	89 44 24 e8          	mov    %eax,-0x18(%rsp)
  4012ba:	8b 44 24 e4          	mov    -0x1c(%rsp),%eax
  4012be:	69 c0 f7 59 00 00    	imul   $0x59f7,%eax,%eax
  4012c4:	89 44 24 e4          	mov    %eax,-0x1c(%rsp)
  4012c8:	8b 44 24 f4          	mov    -0xc(%rsp),%eax
  4012cc:	69 c0 c8 10 00 00    	imul   $0x10c8,%eax,%eax
  4012d2:	89 44 24 f4          	mov    %eax,-0xc(%rsp)
  4012d6:	8b 44 24 d4          	mov    -0x2c(%rsp),%eax
  4012da:	69 c0 99 7d 00 00    	imul   $0x7d99,%eax,%eax
  4012e0:	89 44 24 d4          	mov    %eax,-0x2c(%rsp)
  4012e4:	8b 44 24 f4          	mov    -0xc(%rsp),%eax
  4012e8:	69 c0 44 f7 00 00    	imul   $0xf744,%eax,%eax
  4012ee:	89 44 24 f4          	mov    %eax,-0xc(%rsp)
  4012f2:	8b 44 24 e0          	mov    -0x20(%rsp),%eax
  4012f6:	69 c0 66 03 00 00    	imul   $0x366,%eax,%eax
  4012fc:	89 44 24 e0          	mov    %eax,-0x20(%rsp)
  401300:	8b 44 24 e4          	mov    -0x1c(%rsp),%eax
  401304:	69 c0 5e 47 00 00    	imul   $0x475e,%eax,%eax
  40130a:	89 44 24 e4          	mov    %eax,-0x1c(%rsp)
  40130e:	8b 44 24 e4          	mov    -0x1c(%rsp),%eax
  401312:	69 c0 bb 9a 00 00    	imul   $0x9abb,%eax,%eax
  401318:	89 44 24 e4          	mov    %eax,-0x1c(%rsp)
  40131c:	8b 44 24 e0          	mov    -0x20(%rsp),%eax
  401320:	69 c0 27 aa 00 00    	imul   $0xaa27,%eax,%eax
  401326:	89 44 24 e0          	mov    %eax,-0x20(%rsp)
  40132a:	8b 44 24 d8          	mov    -0x28(%rsp),%eax
  40132e:	69 c0 51 08 00 00    	imul   $0x851,%eax,%eax
  401334:	89 44 24 d8          	mov    %eax,-0x28(%rsp)
  401338:	8b 44 24 e0          	mov    -0x20(%rsp),%eax
  40133c:	69 c0 ca 03 00 00    	imul   $0x3ca,%eax,%eax
  401342:	89 44 24 e0          	mov    %eax,-0x20(%rsp)
  401346:	8b 44 24 f4          	mov    -0xc(%rsp),%eax
  40134a:	69 c0 53 1b 00 00    	imul   $0x1b53,%eax,%eax
  401350:	89 44 24 f4          	mov    %eax,-0xc(%rsp)
  401354:	8b 44 24 e4          	mov    -0x1c(%rsp),%eax
  401358:	69 c0 7d d5 00 00    	imul   $0xd57d,%eax,%eax
  40135e:	89 44 24 e4          	mov    %eax,-0x1c(%rsp)
  401362:	8b 44 24 e8          	mov    -0x18(%rsp),%eax
  401366:	69 c0 c2 f4 00 00    	imul   $0xf4c2,%eax,%eax
  40136c:	89 44 24 e8          	mov    %eax,-0x18(%rsp)
  401370:	8b 44 24 d0          	mov    -0x30(%rsp),%eax
  401374:	69 c0 e5 fb 00 00    	imul   $0xfbe5,%eax,%eax
  40137a:	89 44 24 d0          	mov    %eax,-0x30(%rsp)
  40137e:	8b 44 24 d8          	mov    -0x28(%rsp),%eax
  401382:	69 c0 07 29 00 00    	imul   $0x2907,%eax,%eax
  401388:	89 44 24 d8          	mov    %eax,-0x28(%rsp)
  40138c:	8b 44 24 d0          	mov    -0x30(%rsp),%eax
  401390:	69 c0 6c d8 00 00    	imul   $0xd86c,%eax,%eax
  401396:	89 44 24 d0          	mov    %eax,-0x30(%rsp)
  40139a:	8b 44 24 d4          	mov    -0x2c(%rsp),%eax
  40139e:	69 c0 80 be 00 00    	imul   $0xbe80,%eax,%eax
  4013a4:	89 44 24 d4          	mov    %eax,-0x2c(%rsp)
  4013a8:	8b 44 24 f4          	mov    -0xc(%rsp),%eax
  4013ac:	69 c0 80 22 00 00    	imul   $0x2280,%eax,%eax
  4013b2:	89 44 24 f4          	mov    %eax,-0xc(%rsp)
  4013b6:	8b 44 24 e0          	mov    -0x20(%rsp),%eax
  4013ba:	69 c0 56 28 00 00    	imul   $0x2856,%eax,%eax
  4013c0:	89 44 24 e0          	mov    %eax,-0x20(%rsp)
  4013c4:	8b 44 24 d0          	mov    -0x30(%rsp),%eax
  4013c8:	69 c0 a0 bc 00 00    	imul   $0xbca0,%eax,%eax
  4013ce:	89 44 24 d0          	mov    %eax,-0x30(%rsp)
  4013d2:	8b 44 24 e4          	mov    -0x1c(%rsp),%eax
  4013d6:	69 c0 4a 7c 00 00    	imul   $0x7c4a,%eax,%eax
  4013dc:	89 44 24 e4          	mov    %eax,-0x1c(%rsp)
  4013e0:	8b 44 24 d8          	mov    -0x28(%rsp),%eax
  4013e4:	69 c0 2f 79 00 00    	imul   $0x792f,%eax,%eax
  4013ea:	89 44 24 d8          	mov    %eax,-0x28(%rsp)
  4013ee:	8b 44 24 d8          	mov    -0x28(%rsp),%eax
  4013f2:	69 c0 ca b6 00 00    	imul   $0xb6ca,%eax,%eax
  4013f8:	89 44 24 d8          	mov    %eax,-0x28(%rsp)
  4013fc:	8b 44 24 ec          	mov    -0x14(%rsp),%eax
  401400:	69 c0 8c 0a 00 00    	imul   $0xa8c,%eax,%eax
  401406:	89 44 24 ec          	mov    %eax,-0x14(%rsp)
  40140a:	8b 44 24 f0          	mov    -0x10(%rsp),%eax
  40140e:	69 c0 c2 1d 00 00    	imul   $0x1dc2,%eax,%eax
  401414:	89 44 24 f0          	mov    %eax,-0x10(%rsp)
  401418:	8b 44 24 e4          	mov    -0x1c(%rsp),%eax
  40141c:	69 c0 c5 0d 00 00    	imul   $0xdc5,%eax,%eax
  401422:	89 44 24 e4          	mov    %eax,-0x1c(%rsp)
  401426:	8b 44 24 ec          	mov    -0x14(%rsp),%eax
  40142a:	69 c0 09 ad 00 00    	imul   $0xad09,%eax,%eax
  401430:	89 44 24 ec          	mov    %eax,-0x14(%rsp)
  401434:	8b 44 24 f4          	mov    -0xc(%rsp),%eax
  401438:	69 c0 98 a5 00 00    	imul   $0xa598,%eax,%eax
  40143e:	89 44 24 f4          	mov    %eax,-0xc(%rsp)
  401442:	8b 44 24 f4          	mov    -0xc(%rsp),%eax
  401446:	69 c0 fb 85 00 00    	imul   $0x85fb,%eax,%eax
  40144c:	89 44 24 f4          	mov    %eax,-0xc(%rsp)
  401450:	8b 44 24 d8          	mov    -0x28(%rsp),%eax
  401454:	69 c0 ed 5b 00 00    	imul   $0x5bed,%eax,%eax
  40145a:	89 44 24 d8          	mov    %eax,-0x28(%rsp)
  40145e:	8b 44 24 f0          	mov    -0x10(%rsp),%eax
  401462:	69 c0 46 03 00 00    	imul   $0x346,%eax,%eax
  401468:	89 44 24 f0          	mov    %eax,-0x10(%rsp)
  40146c:	8b 44 24 d8          	mov    -0x28(%rsp),%eax
  401470:	69 c0 00 32 00 00    	imul   $0x3200,%eax,%eax
  401476:	89 44 24 d8          	mov    %eax,-0x28(%rsp)
  40147a:	8b 44 24 e8          	mov    -0x18(%rsp),%eax
  40147e:	69 c0 8f 1d 00 00    	imul   $0x1d8f,%eax,%eax
  401484:	89 44 24 e8          	mov    %eax,-0x18(%rsp)
  401488:	8b 44 24 d4          	mov    -0x2c(%rsp),%eax
  40148c:	69 c0 df fd 00 00    	imul   $0xfddf,%eax,%eax
  401492:	89 44 24 d4          	mov    %eax,-0x2c(%rsp)
  401496:	8b 44 24 d4          	mov    -0x2c(%rsp),%eax
  40149a:	69 c0 44 6e 00 00    	imul   $0x6e44,%eax,%eax
  4014a0:	89 44 24 d4          	mov    %eax,-0x2c(%rsp)
  4014a4:	8b 44 24 d4          	mov    -0x2c(%rsp),%eax
  4014a8:	69 c0 a1 71 00 00    	imul   $0x71a1,%eax,%eax
  4014ae:	89 44 24 d4          	mov    %eax,-0x2c(%rsp)
  4014b2:	8b 44 24 f0          	mov    -0x10(%rsp),%eax
  4014b6:	69 c0 7e be 00 00    	imul   $0xbe7e,%eax,%eax
  4014bc:	89 44 24 f0          	mov    %eax,-0x10(%rsp)
  4014c0:	8b 44 24 d8          	mov    -0x28(%rsp),%eax
  4014c4:	69 c0 95 01 00 00    	imul   $0x195,%eax,%eax
  4014ca:	89 44 24 d8          	mov    %eax,-0x28(%rsp)
  4014ce:	8b 44 24 dc          	mov    -0x24(%rsp),%eax
  4014d2:	69 c0 26 0e 00 00    	imul   $0xe26,%eax,%eax
  4014d8:	89 44 24 dc          	mov    %eax,-0x24(%rsp)
  4014dc:	8b 44 24 d0          	mov    -0x30(%rsp),%eax
  4014e0:	69 c0 63 34 00 00    	imul   $0x3463,%eax,%eax
  4014e6:	89 44 24 d0          	mov    %eax,-0x30(%rsp)
  4014ea:	8b 44 24 dc          	mov    -0x24(%rsp),%eax
  4014ee:	69 c0 77 1a 00 00    	imul   $0x1a77,%eax,%eax
  4014f4:	89 44 24 dc          	mov    %eax,-0x24(%rsp)
  4014f8:	8b 44 24 d0          	mov    -0x30(%rsp),%eax
  4014fc:	69 c0 fd 64 00 00    	imul   $0x64fd,%eax,%eax
  401502:	89 44 24 d0          	mov    %eax,-0x30(%rsp)
  401506:	8b 44 24 e4          	mov    -0x1c(%rsp),%eax
  40150a:	69 c0 6c 25 00 00    	imul   $0x256c,%eax,%eax
  401510:	89 44 24 e4          	mov    %eax,-0x1c(%rsp)
  401514:	8b 44 24 ec          	mov    -0x14(%rsp),%eax
  401518:	69 c0 4b 69 00 00    	imul   $0x694b,%eax,%eax
  40151e:	89 44 24 ec          	mov    %eax,-0x14(%rsp)
  401522:	8b 44 24 d0          	mov    -0x30(%rsp),%eax
  401526:	69 c0 12 ac 00 00    	imul   $0xac12,%eax,%eax
  40152c:	89 44 24 d0          	mov    %eax,-0x30(%rsp)
  401530:	8b 44 24 d0          	mov    -0x30(%rsp),%eax
  401534:	69 c0 69 5a 00 00    	imul   $0x5a69,%eax,%eax
  40153a:	89 44 24 d0          	mov    %eax,-0x30(%rsp)
  40153e:	8b 44 24 e4          	mov    -0x1c(%rsp),%eax
  401542:	69 c0 92 f9 00 00    	imul   $0xf992,%eax,%eax
  401548:	89 44 24 e4          	mov    %eax,-0x1c(%rsp)
  40154c:	8b 44 24 f4          	mov    -0xc(%rsp),%eax
  401550:	69 c0 1e 71 00 00    	imul   $0x711e,%eax,%eax
  401556:	89 44 24 f4          	mov    %eax,-0xc(%rsp)
  40155a:	8b 44 24 e4          	mov    -0x1c(%rsp),%eax
  40155e:	69 c0 ea e0 00 00    	imul   $0xe0ea,%eax,%eax
  401564:	89 44 24 e4          	mov    %eax,-0x1c(%rsp)
  401568:	8b 44 24 e0          	mov    -0x20(%rsp),%eax
  40156c:	69 c0 06 5d 00 00    	imul   $0x5d06,%eax,%eax
  401572:	89 44 24 e0          	mov    %eax,-0x20(%rsp)
  401576:	8b 44 24 e4          	mov    -0x1c(%rsp),%eax
  40157a:	69 c0 7d 29 00 00    	imul   $0x297d,%eax,%eax
  401580:	89 44 24 e4          	mov    %eax,-0x1c(%rsp)
  401584:	8b 44 24 ec          	mov    -0x14(%rsp),%eax
  401588:	69 c0 bd 39 00 00    	imul   $0x39bd,%eax,%eax
  40158e:	89 44 24 ec          	mov    %eax,-0x14(%rsp)
  401592:	8b 44 24 d8          	mov    -0x28(%rsp),%eax
  401596:	69 c0 77 b9 00 00    	imul   $0xb977,%eax,%eax
  40159c:	89 44 24 d8          	mov    %eax,-0x28(%rsp)
  4015a0:	8b 44 24 f4          	mov    -0xc(%rsp),%eax
  4015a4:	69 c0 44 5d 00 00    	imul   $0x5d44,%eax,%eax
  4015aa:	89 44 24 f4          	mov    %eax,-0xc(%rsp)
  4015ae:	8b 44 24 f4          	mov    -0xc(%rsp),%eax
  4015b2:	69 c0 73 47 00 00    	imul   $0x4773,%eax,%eax
  4015b8:	89 44 24 f4          	mov    %eax,-0xc(%rsp)
  4015bc:	8b 44 24 e8          	mov    -0x18(%rsp),%eax
  4015c0:	69 c0 85 f3 00 00    	imul   $0xf385,%eax,%eax
  4015c6:	89 44 24 e8          	mov    %eax,-0x18(%rsp)
  4015ca:	8b 44 24 e0          	mov    -0x20(%rsp),%eax
  4015ce:	69 c0 d0 d3 00 00    	imul   $0xd3d0,%eax,%eax
  4015d4:	89 44 24 e0          	mov    %eax,-0x20(%rsp)
  4015d8:	8b 44 24 e8          	mov    -0x18(%rsp),%eax
  4015dc:	69 c0 6a 29 00 00    	imul   $0x296a,%eax,%eax
  4015e2:	89 44 24 e8          	mov    %eax,-0x18(%rsp)
  4015e6:	8b 44 24 f4          	mov    -0xc(%rsp),%eax
  4015ea:	69 c0 17 63 00 00    	imul   $0x6317,%eax,%eax
  4015f0:	89 44 24 f4          	mov    %eax,-0xc(%rsp)
  4015f4:	8b 44 24 d0          	mov    -0x30(%rsp),%eax
  4015f8:	69 c0 a3 a4 00 00    	imul   $0xa4a3,%eax,%eax
  4015fe:	89 44 24 d0          	mov    %eax,-0x30(%rsp)
  401602:	8b 44 24 e0          	mov    -0x20(%rsp),%eax
  401606:	69 c0 ee 57 00 00    	imul   $0x57ee,%eax,%eax
  40160c:	89 44 24 e0          	mov    %eax,-0x20(%rsp)
  401610:	8b 44 24 d8          	mov    -0x28(%rsp),%eax
  401614:	69 c0 82 be 00 00    	imul   $0xbe82,%eax,%eax
  40161a:	89 44 24 d8          	mov    %eax,-0x28(%rsp)
  40161e:	8b 44 24 dc          	mov    -0x24(%rsp),%eax
  401622:	69 c0 76 8b 00 00    	imul   $0x8b76,%eax,%eax
  401628:	89 44 24 dc          	mov    %eax,-0x24(%rsp)
  40162c:	8b 44 24 d8          	mov    -0x28(%rsp),%eax
  401630:	69 c0 a2 68 00 00    	imul   $0x68a2,%eax,%eax
  401636:	89 44 24 d8          	mov    %eax,-0x28(%rsp)
  40163a:	8b 44 24 f0          	mov    -0x10(%rsp),%eax
  40163e:	69 c0 9e 9e 00 00    	imul   $0x9e9e,%eax,%eax
  401644:	89 44 24 f0          	mov    %eax,-0x10(%rsp)
  401648:	8b 44 24 ec          	mov    -0x14(%rsp),%eax
  40164c:	69 c0 8e bb 00 00    	imul   $0xbb8e,%eax,%eax
  401652:	89 44 24 ec          	mov    %eax,-0x14(%rsp)
  401656:	8b 44 24 e0          	mov    -0x20(%rsp),%eax
  40165a:	69 c0 50 94 00 00    	imul   $0x9450,%eax,%eax
  401660:	89 44 24 e0          	mov    %eax,-0x20(%rsp)
  401664:	8b 44 24 d4          	mov    -0x2c(%rsp),%eax
  401668:	69 c0 17 b0 00 00    	imul   $0xb017,%eax,%eax
  40166e:	89 44 24 d4          	mov    %eax,-0x2c(%rsp)
  401672:	8b 44 24 ec          	mov    -0x14(%rsp),%eax
  401676:	69 c0 9e 30 00 00    	imul   $0x309e,%eax,%eax
  40167c:	89 44 24 ec          	mov    %eax,-0x14(%rsp)
  401680:	8b 44 24 e0          	mov    -0x20(%rsp),%eax
  401684:	69 c0 65 15 00 00    	imul   $0x1565,%eax,%eax
  40168a:	89 44 24 e0          	mov    %eax,-0x20(%rsp)
  40168e:	8b 44 24 d8          	mov    -0x28(%rsp),%eax
  401692:	69 c0 02 9f 00 00    	imul   $0x9f02,%eax,%eax
  401698:	89 44 24 d8          	mov    %eax,-0x28(%rsp)
  40169c:	8b 44 24 dc          	mov    -0x24(%rsp),%eax
  4016a0:	69 c0 fc d9 00 00    	imul   $0xd9fc,%eax,%eax
  4016a6:	89 44 24 dc          	mov    %eax,-0x24(%rsp)
  4016aa:	8b 44 24 d4          	mov    -0x2c(%rsp),%eax
  4016ae:	69 c0 6d 61 00 00    	imul   $0x616d,%eax,%eax
  4016b4:	89 44 24 d4          	mov    %eax,-0x2c(%rsp)
  4016b8:	8b 44 24 d0          	mov    -0x30(%rsp),%eax
  4016bc:	69 c0 0f 6c 00 00    	imul   $0x6c0f,%eax,%eax
  4016c2:	89 44 24 d0          	mov    %eax,-0x30(%rsp)
  4016c6:	8b 44 24 e4          	mov    -0x1c(%rsp),%eax
  4016ca:	69 c0 1c 96 00 00    	imul   $0x961c,%eax,%eax
  4016d0:	89 44 24 e4          	mov    %eax,-0x1c(%rsp)
  4016d4:	8b 44 24 e0          	mov    -0x20(%rsp),%eax
  4016d8:	69 c0 ae d3 00 00    	imul   $0xd3ae,%eax,%eax
  4016de:	89 44 24 e0          	mov    %eax,-0x20(%rsp)
  4016e2:	8b 44 24 dc          	mov    -0x24(%rsp),%eax
  4016e6:	69 c0 bf 0f 00 00    	imul   $0xfbf,%eax,%eax
  4016ec:	89 44 24 dc          	mov    %eax,-0x24(%rsp)
  4016f0:	8b 44 24 d4          	mov    -0x2c(%rsp),%eax
  4016f4:	69 c0 8b 3f 00 00    	imul   $0x3f8b,%eax,%eax
  4016fa:	89 44 24 d4          	mov    %eax,-0x2c(%rsp)
  4016fe:	8b 44 24 e4          	mov    -0x1c(%rsp),%eax
  401702:	69 c0 d2 c1 00 00    	imul   $0xc1d2,%eax,%eax
  401708:	89 44 24 e4          	mov    %eax,-0x1c(%rsp)
  40170c:	8b 44 24 e8          	mov    -0x18(%rsp),%eax
  401710:	69 c0 95 07 00 00    	imul   $0x795,%eax,%eax
  401716:	89 44 24 e8          	mov    %eax,-0x18(%rsp)
  40171a:	8b 44 24 e0          	mov    -0x20(%rsp),%eax
  40171e:	69 c0 d5 6d 00 00    	imul   $0x6dd5,%eax,%eax
  401724:	89 44 24 e0          	mov    %eax,-0x20(%rsp)
  401728:	8b 44 24 d4          	mov    -0x2c(%rsp),%eax
  40172c:	69 c0 8c 28 00 00    	imul   $0x288c,%eax,%eax
  401732:	89 44 24 d4          	mov    %eax,-0x2c(%rsp)
  401736:	8b 44 24 dc          	mov    -0x24(%rsp),%eax
  40173a:	69 c0 70 b8 00 00    	imul   $0xb870,%eax,%eax
  401740:	89 44 24 dc          	mov    %eax,-0x24(%rsp)
  401744:	8b 44 24 f0          	mov    -0x10(%rsp),%eax
  401748:	69 c0 ed 4f 00 00    	imul   $0x4fed,%eax,%eax
  40174e:	89 44 24 f0          	mov    %eax,-0x10(%rsp)
  401752:	8b 44 24 f0          	mov    -0x10(%rsp),%eax
  401756:	69 c0 fe e5 00 00    	imul   $0xe5fe,%eax,%eax
  40175c:	89 44 24 f0          	mov    %eax,-0x10(%rsp)
  401760:	8b 44 24 f0          	mov    -0x10(%rsp),%eax
  401764:	69 c0 20 61 00 00    	imul   $0x6120,%eax,%eax
  40176a:	89 44 24 f0          	mov    %eax,-0x10(%rsp)
  40176e:	8b 44 24 e4          	mov    -0x1c(%rsp),%eax
  401772:	69 c0 3c 6e 00 00    	imul   $0x6e3c,%eax,%eax
  401778:	89 44 24 e4          	mov    %eax,-0x1c(%rsp)
  40177c:	8b 44 24 d4          	mov    -0x2c(%rsp),%eax
  401780:	69 c0 d3 f7 00 00    	imul   $0xf7d3,%eax,%eax
  401786:	89 44 24 d4          	mov    %eax,-0x2c(%rsp)
  40178a:	8b 44 24 dc          	mov    -0x24(%rsp),%eax
  40178e:	69 c0 84 3e 00 00    	imul   $0x3e84,%eax,%eax
  401794:	89 44 24 dc          	mov    %eax,-0x24(%rsp)
  401798:	8b 44 24 d0          	mov    -0x30(%rsp),%eax
  40179c:	69 c0 2e 94 00 00    	imul   $0x942e,%eax,%eax
  4017a2:	89 44 24 d0          	mov    %eax,-0x30(%rsp)
  4017a6:	8b 44 24 e0          	mov    -0x20(%rsp),%eax
  4017aa:	69 c0 96 74 00 00    	imul   $0x7496,%eax,%eax
  4017b0:	89 44 24 e0          	mov    %eax,-0x20(%rsp)
  4017b4:	8b 44 24 d4          	mov    -0x2c(%rsp),%eax
  4017b8:	69 c0 ab c2 00 00    	imul   $0xc2ab,%eax,%eax
  4017be:	89 44 24 d4          	mov    %eax,-0x2c(%rsp)
  4017c2:	8b 44 24 f0          	mov    -0x10(%rsp),%eax
  4017c6:	69 c0 0d fa 00 00    	imul   $0xfa0d,%eax,%eax
  4017cc:	89 44 24 f0          	mov    %eax,-0x10(%rsp)
  4017d0:	8b 44 24 ec          	mov    -0x14(%rsp),%eax
  4017d4:	69 c0 8b 1f 00 00    	imul   $0x1f8b,%eax,%eax
  4017da:	89 44 24 ec          	mov    %eax,-0x14(%rsp)
  4017de:	ba 00 00 00 00       	mov    $0x0,%edx
  4017e3:	b8 00 00 00 00       	mov    $0x0,%eax
  4017e8:	89 d1                	mov    %edx,%ecx
  4017ea:	8b 4c 8c d0          	mov    -0x30(%rsp,%rcx,4),%ecx
  4017ee:	01 c8                	add    %ecx,%eax
  4017f0:	83 c2 01             	add    $0x1,%edx
  4017f3:	83 fa 0a             	cmp    $0xa,%edx
  4017f6:	75 f0                	jne    4017e8 <scramble+0x571>
  4017f8:	c3                   	retq   

00000000004017f9 <getbuf>:
  4017f9:	48 83 ec 38          	sub    $0x38,%rsp
  4017fd:	48 89 e7             	mov    %rsp,%rdi
  401800:	e8 e0 02 00 00       	callq  401ae5 <Gets>
  401805:	b8 01 00 00 00       	mov    $0x1,%eax
  40180a:	48 83 c4 38          	add    $0x38,%rsp
  40180e:	c3                   	retq   

000000000040180f <touch1>:
  40180f:	48 83 ec 08          	sub    $0x8,%rsp
  401813:	c7 05 df 3c 20 00 01 	movl   $0x1,0x203cdf(%rip)        # 6054fc <vlevel>
  40181a:	00 00 00 
  40181d:	bf 6a 32 40 00       	mov    $0x40326a,%edi
  401822:	e8 49 f4 ff ff       	callq  400c70 <puts@plt>
  401827:	bf 01 00 00 00       	mov    $0x1,%edi
  40182c:	e8 1d 05 00 00       	callq  401d4e <validate>
  401831:	bf 00 00 00 00       	mov    $0x0,%edi
  401836:	e8 95 f5 ff ff       	callq  400dd0 <exit@plt>

000000000040183b <touch2>:
  40183b:	48 83 ec 08          	sub    $0x8,%rsp
  40183f:	89 fe                	mov    %edi,%esi
  401841:	c7 05 b1 3c 20 00 02 	movl   $0x2,0x203cb1(%rip)        # 6054fc <vlevel>
  401848:	00 00 00 
  40184b:	39 3d b3 3c 20 00    	cmp    %edi,0x203cb3(%rip)        # 605504 <cookie>
  401851:	74 23                	je     401876 <touch2+0x3b>
  401853:	bf b8 32 40 00       	mov    $0x4032b8,%edi
  401858:	b8 00 00 00 00       	mov    $0x0,%eax
  40185d:	e8 3e f4 ff ff       	callq  400ca0 <printf@plt>
  401862:	bf 02 00 00 00       	mov    $0x2,%edi
  401867:	e8 b6 05 00 00       	callq  401e22 <fail>
  40186c:	bf 00 00 00 00       	mov    $0x0,%edi
  401871:	e8 5a f5 ff ff       	callq  400dd0 <exit@plt>
  401876:	bf 90 32 40 00       	mov    $0x403290,%edi
  40187b:	b8 00 00 00 00       	mov    $0x0,%eax
  401880:	e8 1b f4 ff ff       	callq  400ca0 <printf@plt>
  401885:	bf 02 00 00 00       	mov    $0x2,%edi
  40188a:	e8 bf 04 00 00       	callq  401d4e <validate>
  40188f:	eb db                	jmp    40186c <touch2+0x31>

0000000000401891 <hexmatch>:
  401891:	41 54                	push   %r12
  401893:	55                   	push   %rbp
  401894:	53                   	push   %rbx
  401895:	48 83 ec 70          	sub    $0x70,%rsp
  401899:	89 fd                	mov    %edi,%ebp
  40189b:	48 89 f3             	mov    %rsi,%rbx
  40189e:	e8 9d f4 ff ff       	callq  400d40 <random@plt>
  4018a3:	48 89 c1             	mov    %rax,%rcx
  4018a6:	48 ba 0b d7 a3 70 3d 	movabs $0xa3d70a3d70a3d70b,%rdx
  4018ad:	0a d7 a3 
  4018b0:	48 f7 ea             	imul   %rdx
  4018b3:	48 01 ca             	add    %rcx,%rdx
  4018b6:	48 c1 fa 06          	sar    $0x6,%rdx
  4018ba:	48 89 c8             	mov    %rcx,%rax
  4018bd:	48 c1 f8 3f          	sar    $0x3f,%rax
  4018c1:	48 29 c2             	sub    %rax,%rdx
  4018c4:	48 8d 04 92          	lea    (%rdx,%rdx,4),%rax
  4018c8:	48 8d 04 80          	lea    (%rax,%rax,4),%rax
  4018cc:	48 c1 e0 02          	shl    $0x2,%rax
  4018d0:	48 29 c1             	sub    %rax,%rcx
  4018d3:	4c 8d 24 0c          	lea    (%rsp,%rcx,1),%r12
  4018d7:	89 ea                	mov    %ebp,%edx
  4018d9:	be 87 32 40 00       	mov    $0x403287,%esi
  4018de:	4c 89 e7             	mov    %r12,%rdi
  4018e1:	b8 00 00 00 00       	mov    $0x0,%eax
  4018e6:	e8 d5 f4 ff ff       	callq  400dc0 <sprintf@plt>
  4018eb:	ba 09 00 00 00       	mov    $0x9,%edx
  4018f0:	4c 89 e6             	mov    %r12,%rsi
  4018f3:	48 89 df             	mov    %rbx,%rdi
  4018f6:	e8 55 f3 ff ff       	callq  400c50 <strncmp@plt>
  4018fb:	85 c0                	test   %eax,%eax
  4018fd:	0f 94 c0             	sete   %al
  401900:	0f b6 c0             	movzbl %al,%eax
  401903:	48 83 c4 70          	add    $0x70,%rsp
  401907:	5b                   	pop    %rbx
  401908:	5d                   	pop    %rbp
  401909:	41 5c                	pop    %r12
  40190b:	c3                   	retq   

000000000040190c <touch3>:
  40190c:	53                   	push   %rbx
  40190d:	48 89 fb             	mov    %rdi,%rbx
  401910:	c7 05 e2 3b 20 00 03 	movl   $0x3,0x203be2(%rip)        # 6054fc <vlevel>
  401917:	00 00 00 
  40191a:	48 89 fe             	mov    %rdi,%rsi
  40191d:	8b 3d e1 3b 20 00    	mov    0x203be1(%rip),%edi        # 605504 <cookie>
  401923:	e8 69 ff ff ff       	callq  401891 <hexmatch>
  401928:	85 c0                	test   %eax,%eax
  40192a:	74 26                	je     401952 <touch3+0x46>
  40192c:	48 89 de             	mov    %rbx,%rsi
  40192f:	bf e0 32 40 00       	mov    $0x4032e0,%edi
  401934:	b8 00 00 00 00       	mov    $0x0,%eax
  401939:	e8 62 f3 ff ff       	callq  400ca0 <printf@plt>
  40193e:	bf 03 00 00 00       	mov    $0x3,%edi
  401943:	e8 06 04 00 00       	callq  401d4e <validate>
  401948:	bf 00 00 00 00       	mov    $0x0,%edi
  40194d:	e8 7e f4 ff ff       	callq  400dd0 <exit@plt>
  401952:	48 89 de             	mov    %rbx,%rsi
  401955:	bf 08 33 40 00       	mov    $0x403308,%edi
  40195a:	b8 00 00 00 00       	mov    $0x0,%eax
  40195f:	e8 3c f3 ff ff       	callq  400ca0 <printf@plt>
  401964:	bf 03 00 00 00       	mov    $0x3,%edi
  401969:	e8 b4 04 00 00       	callq  401e22 <fail>
  40196e:	eb d8                	jmp    401948 <touch3+0x3c>

0000000000401970 <test>:
  401970:	48 83 ec 08          	sub    $0x8,%rsp
  401974:	b8 00 00 00 00       	mov    $0x0,%eax
  401979:	e8 7b fe ff ff       	callq  4017f9 <getbuf>
  40197e:	89 c6                	mov    %eax,%esi
  401980:	bf 30 33 40 00       	mov    $0x403330,%edi
  401985:	b8 00 00 00 00       	mov    $0x0,%eax
  40198a:	e8 11 f3 ff ff       	callq  400ca0 <printf@plt>
  40198f:	48 83 c4 08          	add    $0x8,%rsp
  401993:	c3                   	retq   

0000000000401994 <start_farm>:
  401994:	b8 01 00 00 00       	mov    $0x1,%eax
  401999:	c3                   	retq   

000000000040199a <getval_240>:
  40199a:	b8 48 89 c7 c3       	mov    $0xc3c78948,%eax
  40199f:	c3                   	retq   

00000000004019a0 <setval_328>:
  4019a0:	c7 07 48 89 c7 94    	movl   $0x94c78948,(%rdi)
  4019a6:	c3                   	retq   

00000000004019a7 <getval_354>:
  4019a7:	b8 58 90 90 c3       	mov    $0xc3909058,%eax
  4019ac:	c3                   	retq   

00000000004019ad <getval_120>:
  4019ad:	b8 58 91 90 90       	mov    $0x90909158,%eax
  4019b2:	c3                   	retq   

00000000004019b3 <setval_348>:
  4019b3:	c7 07 99 ee fd 58    	movl   $0x58fdee99,(%rdi)
  4019b9:	c3                   	retq   

00000000004019ba <addval_281>:
  4019ba:	8d 87 48 89 c7 c1    	lea    -0x3e3876b8(%rdi),%eax
  4019c0:	c3                   	retq   

00000000004019c1 <addval_461>:
  4019c1:	8d 87 48 89 c7 c3    	lea    -0x3c3876b8(%rdi),%eax
  4019c7:	c3                   	retq   

00000000004019c8 <addval_452>:
  4019c8:	8d 87 d8 89 f7 50    	lea    0x50f789d8(%rdi),%eax
  4019ce:	c3                   	retq   

00000000004019cf <mid_farm>:
  4019cf:	b8 01 00 00 00       	mov    $0x1,%eax
  4019d4:	c3                   	retq   

00000000004019d5 <add_xy>:
  4019d5:	48 8d 04 37          	lea    (%rdi,%rsi,1),%rax
  4019d9:	c3                   	retq   

00000000004019da <getval_189>:
  4019da:	b8 d1 09 c2 90       	mov    $0x90c209d1,%eax
  4019df:	c3                   	retq   

00000000004019e0 <addval_406>:
  4019e0:	8d 87 b9 89 c2 94    	lea    -0x6b3d7647(%rdi),%eax
  4019e6:	c3                   	retq   

00000000004019e7 <getval_154>:
  4019e7:	b8 48 89 e0 92       	mov    $0x92e08948,%eax
  4019ec:	c3                   	retq   

00000000004019ed <getval_339>:
  4019ed:	b8 09 c2 90 90       	mov    $0x9090c209,%eax
  4019f2:	c3                   	retq   

00000000004019f3 <addval_209>:
  4019f3:	8d 87 81 c2 20 db    	lea    -0x24df3d7f(%rdi),%eax
  4019f9:	c3                   	retq   

00000000004019fa <addval_174>:
  4019fa:	8d 87 48 99 e0 90    	lea    -0x6f1f66b8(%rdi),%eax
  401a00:	c3                   	retq   

0000000000401a01 <getval_264>:
  401a01:	b8 89 c2 00 db       	mov    $0xdb00c289,%eax
  401a06:	c3                   	retq   

0000000000401a07 <setval_218>:
  401a07:	c7 07 89 d1 60 c0    	movl   $0xc060d189,(%rdi)
  401a0d:	c3                   	retq   

0000000000401a0e <addval_127>:
  401a0e:	8d 87 09 d1 90 90    	lea    -0x6f6f2ef7(%rdi),%eax
  401a14:	c3                   	retq   

0000000000401a15 <addval_229>:
  401a15:	8d 87 48 89 e0 94    	lea    -0x6b1f76b8(%rdi),%eax
  401a1b:	c3                   	retq   

0000000000401a1c <setval_212>:
  401a1c:	c7 07 89 c2 00 d2    	movl   $0xd200c289,(%rdi)
  401a22:	c3                   	retq   

0000000000401a23 <getval_382>:
  401a23:	b8 09 ce 84 db       	mov    $0xdb84ce09,%eax
  401a28:	c3                   	retq   

0000000000401a29 <setval_145>:
  401a29:	c7 07 89 ce 90 c3    	movl   $0xc390ce89,(%rdi)
  401a2f:	c3                   	retq   

0000000000401a30 <addval_177>:
  401a30:	8d 87 89 d1 c4 c0    	lea    -0x3f3b2e77(%rdi),%eax
  401a36:	c3                   	retq   

0000000000401a37 <addval_442>:
  401a37:	8d 87 09 ce 38 db    	lea    -0x24c731f7(%rdi),%eax
  401a3d:	c3                   	retq   

0000000000401a3e <getval_128>:
  401a3e:	b8 6d 89 d1 c3       	mov    $0xc3d1896d,%eax
  401a43:	c3                   	retq   

0000000000401a44 <getval_239>:
  401a44:	b8 89 c2 38 d2       	mov    $0xd238c289,%eax
  401a49:	c3                   	retq   

0000000000401a4a <setval_430>:
  401a4a:	c7 07 48 89 e0 c1    	movl   $0xc1e08948,(%rdi)
  401a50:	c3                   	retq   

0000000000401a51 <addval_390>:
  401a51:	8d 87 89 d1 60 c9    	lea    -0x369f2e77(%rdi),%eax
  401a57:	c3                   	retq   

0000000000401a58 <addval_300>:
  401a58:	8d 87 89 d1 48 c0    	lea    -0x3fb72e77(%rdi),%eax
  401a5e:	c3                   	retq   

0000000000401a5f <getval_116>:
  401a5f:	b8 09 ce 20 d2       	mov    $0xd220ce09,%eax
  401a64:	c3                   	retq   

0000000000401a65 <setval_302>:
  401a65:	c7 07 48 89 e0 90    	movl   $0x90e08948,(%rdi)
  401a6b:	c3                   	retq   

0000000000401a6c <setval_142>:
  401a6c:	c7 07 e6 4b 89 ce    	movl   $0xce894be6,(%rdi)
  401a72:	c3                   	retq   

0000000000401a73 <getval_164>:
  401a73:	b8 48 89 e0 94       	mov    $0x94e08948,%eax
  401a78:	c3                   	retq   

0000000000401a79 <addval_119>:
  401a79:	8d 87 89 d1 90 90    	lea    -0x6f6f2e77(%rdi),%eax
  401a7f:	c3                   	retq   

0000000000401a80 <setval_161>:
  401a80:	c7 07 97 68 89 e0    	movl   $0xe0896897,(%rdi)
  401a86:	c3                   	retq   

0000000000401a87 <getval_235>:
  401a87:	b8 89 c2 08 db       	mov    $0xdb08c289,%eax
  401a8c:	c3                   	retq   

0000000000401a8d <addval_478>:
  401a8d:	8d 87 89 ce 30 c9    	lea    -0x36cf3177(%rdi),%eax
  401a93:	c3                   	retq   

0000000000401a94 <setval_184>:
  401a94:	c7 07 8b ce 90 c3    	movl   $0xc390ce8b,(%rdi)
  401a9a:	c3                   	retq   

0000000000401a9b <addval_173>:
  401a9b:	8d 87 6e 89 ce c7    	lea    -0x38317692(%rdi),%eax
  401aa1:	c3                   	retq   

0000000000401aa2 <addval_199>:
  401aa2:	8d 87 99 d1 84 c9    	lea    -0x367b2e67(%rdi),%eax
  401aa8:	c3                   	retq   

0000000000401aa9 <setval_325>:
  401aa9:	c7 07 48 89 e0 c3    	movl   $0xc3e08948,(%rdi)
  401aaf:	c3                   	retq   

0000000000401ab0 <end_farm>:
  401ab0:	b8 01 00 00 00       	mov    $0x1,%eax
  401ab5:	c3                   	retq   

0000000000401ab6 <check_fail>:
  401ab6:	48 83 ec 08          	sub    $0x8,%rsp
  401aba:	0f be 35 67 46 20 00 	movsbl 0x204667(%rip),%esi        # 606128 <target_prefix>
  401ac1:	b9 20 55 60 00       	mov    $0x605520,%ecx
  401ac6:	8b 15 2c 3a 20 00    	mov    0x203a2c(%rip),%edx        # 6054f8 <check_level>
  401acc:	bf 53 33 40 00       	mov    $0x403353,%edi
  401ad1:	b8 00 00 00 00       	mov    $0x0,%eax
  401ad6:	e8 c5 f1 ff ff       	callq  400ca0 <printf@plt>
  401adb:	bf 01 00 00 00       	mov    $0x1,%edi
  401ae0:	e8 eb f2 ff ff       	callq  400dd0 <exit@plt>

0000000000401ae5 <Gets>:
  401ae5:	55                   	push   %rbp
  401ae6:	53                   	push   %rbx
  401ae7:	48 83 ec 08          	sub    $0x8,%rsp
  401aeb:	48 89 fd             	mov    %rdi,%rbp
  401aee:	c7 05 2c 46 20 00 00 	movl   $0x0,0x20462c(%rip)        # 606124 <gets_cnt>
  401af5:	00 00 00 
  401af8:	48 89 fb             	mov    %rdi,%rbx
  401afb:	48 8b 3d ee 39 20 00 	mov    0x2039ee(%rip),%rdi        # 6054f0 <infile>
  401b02:	e8 e9 f2 ff ff       	callq  400df0 <getc@plt>
  401b07:	83 f8 0a             	cmp    $0xa,%eax
  401b0a:	74 65                	je     401b71 <Gets+0x8c>
  401b0c:	83 f8 ff             	cmp    $0xffffffff,%eax
  401b0f:	74 60                	je     401b71 <Gets+0x8c>
  401b11:	48 83 c3 01          	add    $0x1,%rbx
  401b15:	88 43 ff             	mov    %al,-0x1(%rbx)
  401b18:	8b 15 06 46 20 00    	mov    0x204606(%rip),%edx        # 606124 <gets_cnt>
  401b1e:	81 fa ff 03 00 00    	cmp    $0x3ff,%edx
  401b24:	7f d5                	jg     401afb <Gets+0x16>
  401b26:	8d 0c 52             	lea    (%rdx,%rdx,2),%ecx
  401b29:	48 63 f9             	movslq %ecx,%rdi
  401b2c:	89 c6                	mov    %eax,%esi
  401b2e:	40 c0 ee 04          	shr    $0x4,%sil
  401b32:	83 e6 0f             	and    $0xf,%esi
  401b35:	0f b6 b6 50 36 40 00 	movzbl 0x403650(%rsi),%esi
  401b3c:	40 88 b7 20 55 60 00 	mov    %sil,0x605520(%rdi)
  401b43:	8d 71 01             	lea    0x1(%rcx),%esi
  401b46:	48 63 f6             	movslq %esi,%rsi
  401b49:	83 e0 0f             	and    $0xf,%eax
  401b4c:	0f b6 80 50 36 40 00 	movzbl 0x403650(%rax),%eax
  401b53:	88 86 20 55 60 00    	mov    %al,0x605520(%rsi)
  401b59:	83 c1 02             	add    $0x2,%ecx
  401b5c:	48 63 c9             	movslq %ecx,%rcx
  401b5f:	c6 81 20 55 60 00 20 	movb   $0x20,0x605520(%rcx)
  401b66:	83 c2 01             	add    $0x1,%edx
  401b69:	89 15 b5 45 20 00    	mov    %edx,0x2045b5(%rip)        # 606124 <gets_cnt>
  401b6f:	eb 8a                	jmp    401afb <Gets+0x16>
  401b71:	c6 03 00             	movb   $0x0,(%rbx)
  401b74:	8b 05 aa 45 20 00    	mov    0x2045aa(%rip),%eax        # 606124 <gets_cnt>
  401b7a:	8d 04 40             	lea    (%rax,%rax,2),%eax
  401b7d:	48 98                	cltq   
  401b7f:	c6 80 20 55 60 00 00 	movb   $0x0,0x605520(%rax)
  401b86:	48 89 e8             	mov    %rbp,%rax
  401b89:	48 83 c4 08          	add    $0x8,%rsp
  401b8d:	5b                   	pop    %rbx
  401b8e:	5d                   	pop    %rbp
  401b8f:	c3                   	retq   

0000000000401b90 <notify_server>:
  401b90:	83 3d 71 39 20 00 00 	cmpl   $0x0,0x203971(%rip)        # 605508 <is_checker>
  401b97:	0f 85 b0 01 00 00    	jne    401d4d <notify_server+0x1bd>
  401b9d:	48 81 ec 08 40 00 00 	sub    $0x4008,%rsp
  401ba4:	81 3d 76 45 20 00 9c 	cmpl   $0x1f9c,0x204576(%rip)        # 606124 <gets_cnt>
  401bab:	1f 00 00 
  401bae:	7f 71                	jg     401c21 <notify_server+0x91>
  401bb0:	44 0f be 0d 70 45 20 	movsbl 0x204570(%rip),%r9d        # 606128 <target_prefix>
  401bb7:	00 
  401bb8:	83 3d c9 38 20 00 00 	cmpl   $0x0,0x2038c9(%rip)        # 605488 <notify>
  401bbf:	41 b8 ff ff ff ff    	mov    $0xffffffff,%r8d
  401bc5:	44 0f 45 05 33 39 20 	cmovne 0x203933(%rip),%r8d        # 605500 <authkey>
  401bcc:	00 
  401bcd:	85 ff                	test   %edi,%edi
  401bcf:	0f 85 ee 00 00 00    	jne    401cc3 <notify_server+0x133>
  401bd5:	68 20 55 60 00       	pushq  $0x605520
  401bda:	56                   	push   %rsi
  401bdb:	b9 6e 33 40 00       	mov    $0x40336e,%ecx
  401be0:	8b 15 62 35 20 00    	mov    0x203562(%rip),%edx        # 605148 <target_id>
  401be6:	be be 33 40 00       	mov    $0x4033be,%esi
  401beb:	48 8d bc 24 10 20 00 	lea    0x2010(%rsp),%rdi
  401bf2:	00 
  401bf3:	b8 00 00 00 00       	mov    $0x0,%eax
  401bf8:	e8 c3 f1 ff ff       	callq  400dc0 <sprintf@plt>
  401bfd:	48 83 c4 10          	add    $0x10,%rsp
  401c01:	be 6e 33 40 00       	mov    $0x40336e,%esi
  401c06:	83 3d 7b 38 20 00 00 	cmpl   $0x0,0x20387b(%rip)        # 605488 <notify>
  401c0d:	74 47                	je     401c56 <notify_server+0xc6>
  401c0f:	bf 89 33 40 00       	mov    $0x403389,%edi
  401c14:	e8 57 f0 ff ff       	callq  400c70 <puts@plt>
  401c19:	48 81 c4 08 40 00 00 	add    $0x4008,%rsp
  401c20:	c3                   	retq   
  401c21:	bf 88 34 40 00       	mov    $0x403488,%edi
  401c26:	b8 00 00 00 00       	mov    $0x0,%eax
  401c2b:	e8 70 f0 ff ff       	callq  400ca0 <printf@plt>
  401c30:	bf 01 00 00 00       	mov    $0x1,%edi
  401c35:	e8 96 f1 ff ff       	callq  400dd0 <exit@plt>
  401c3a:	48 89 e6             	mov    %rsp,%rsi
  401c3d:	bf 73 33 40 00       	mov    $0x403373,%edi
  401c42:	b8 00 00 00 00       	mov    $0x0,%eax
  401c47:	e8 54 f0 ff ff       	callq  400ca0 <printf@plt>
  401c4c:	bf 01 00 00 00       	mov    $0x1,%edi
  401c51:	e8 7a f1 ff ff       	callq  400dd0 <exit@plt>
  401c56:	bf f0 34 40 00       	mov    $0x4034f0,%edi
  401c5b:	b8 00 00 00 00       	mov    $0x0,%eax
  401c60:	e8 3b f0 ff ff       	callq  400ca0 <printf@plt>
  401c65:	48 8b 35 d4 34 20 00 	mov    0x2034d4(%rip),%rsi        # 605140 <user_id>
  401c6c:	bf 90 33 40 00       	mov    $0x403390,%edi
  401c71:	b8 00 00 00 00       	mov    $0x0,%eax
  401c76:	e8 25 f0 ff ff       	callq  400ca0 <printf@plt>
  401c7b:	48 8b 35 d6 34 20 00 	mov    0x2034d6(%rip),%rsi        # 605158 <course>
  401c82:	bf 9d 33 40 00       	mov    $0x40339d,%edi
  401c87:	b8 00 00 00 00       	mov    $0x0,%eax
  401c8c:	e8 0f f0 ff ff       	callq  400ca0 <printf@plt>
  401c91:	48 8b 35 b8 34 20 00 	mov    0x2034b8(%rip),%rsi        # 605150 <lab>
  401c98:	bf a9 33 40 00       	mov    $0x4033a9,%edi
  401c9d:	b8 00 00 00 00       	mov    $0x0,%eax
  401ca2:	e8 f9 ef ff ff       	callq  400ca0 <printf@plt>
  401ca7:	48 8d b4 24 00 20 00 	lea    0x2000(%rsp),%rsi
  401cae:	00 
  401caf:	bf b2 33 40 00       	mov    $0x4033b2,%edi
  401cb4:	b8 00 00 00 00       	mov    $0x0,%eax
  401cb9:	e8 e2 ef ff ff       	callq  400ca0 <printf@plt>
  401cbe:	e9 56 ff ff ff       	jmpq   401c19 <notify_server+0x89>
  401cc3:	68 20 55 60 00       	pushq  $0x605520
  401cc8:	56                   	push   %rsi
  401cc9:	b9 69 33 40 00       	mov    $0x403369,%ecx
  401cce:	8b 15 74 34 20 00    	mov    0x203474(%rip),%edx        # 605148 <target_id>
  401cd4:	be be 33 40 00       	mov    $0x4033be,%esi
  401cd9:	48 8d bc 24 10 20 00 	lea    0x2010(%rsp),%rdi
  401ce0:	00 
  401ce1:	b8 00 00 00 00       	mov    $0x0,%eax
  401ce6:	e8 d5 f0 ff ff       	callq  400dc0 <sprintf@plt>
  401ceb:	48 83 c4 10          	add    $0x10,%rsp
  401cef:	be 69 33 40 00       	mov    $0x403369,%esi
  401cf4:	83 3d 8d 37 20 00 00 	cmpl   $0x0,0x20378d(%rip)        # 605488 <notify>
  401cfb:	0f 84 55 ff ff ff    	je     401c56 <notify_server+0xc6>
  401d01:	49 89 e1             	mov    %rsp,%r9
  401d04:	41 b8 00 00 00 00    	mov    $0x0,%r8d
  401d0a:	48 8d 8c 24 00 20 00 	lea    0x2000(%rsp),%rcx
  401d11:	00 
  401d12:	48 8b 15 37 34 20 00 	mov    0x203437(%rip),%rdx        # 605150 <lab>
  401d19:	48 8b 35 38 34 20 00 	mov    0x203438(%rip),%rsi        # 605158 <course>
  401d20:	48 8b 3d 19 34 20 00 	mov    0x203419(%rip),%rdi        # 605140 <user_id>
  401d27:	e8 be 0e 00 00       	callq  402bea <driver_post>
  401d2c:	85 c0                	test   %eax,%eax
  401d2e:	0f 88 06 ff ff ff    	js     401c3a <notify_server+0xaa>
  401d34:	bf b8 34 40 00       	mov    $0x4034b8,%edi
  401d39:	e8 32 ef ff ff       	callq  400c70 <puts@plt>
  401d3e:	bf 7f 33 40 00       	mov    $0x40337f,%edi
  401d43:	e8 28 ef ff ff       	callq  400c70 <puts@plt>
  401d48:	e9 cc fe ff ff       	jmpq   401c19 <notify_server+0x89>
  401d4d:	c3                   	retq   

0000000000401d4e <validate>:
  401d4e:	53                   	push   %rbx
  401d4f:	48 83 ec 10          	sub    $0x10,%rsp
  401d53:	89 fb                	mov    %edi,%ebx
  401d55:	48 c7 44 24 08 00 00 	movq   $0x0,0x8(%rsp)
  401d5c:	00 00 
  401d5e:	48 8d 44 24 10       	lea    0x10(%rsp),%rax
  401d63:	a8 08                	test   $0x8,%al
  401d65:	74 04                	je     401d6b <validate+0x1d>
  401d67:	48 83 ec 08          	sub    $0x8,%rsp
  401d6b:	83 3d 96 37 20 00 00 	cmpl   $0x0,0x203796(%rip)        # 605508 <is_checker>
  401d72:	74 60                	je     401dd4 <validate+0x86>
  401d74:	39 1d 82 37 20 00    	cmp    %ebx,0x203782(%rip)        # 6054fc <vlevel>
  401d7a:	75 25                	jne    401da1 <validate+0x53>
  401d7c:	8b 35 76 37 20 00    	mov    0x203776(%rip),%esi        # 6054f8 <check_level>
  401d82:	39 de                	cmp    %ebx,%esi
  401d84:	74 2f                	je     401db5 <validate+0x67>
  401d86:	89 da                	mov    %ebx,%edx
  401d88:	bf 18 35 40 00       	mov    $0x403518,%edi
  401d8d:	b8 00 00 00 00       	mov    $0x0,%eax
  401d92:	e8 09 ef ff ff       	callq  400ca0 <printf@plt>
  401d97:	b8 00 00 00 00       	mov    $0x0,%eax
  401d9c:	e8 15 fd ff ff       	callq  401ab6 <check_fail>
  401da1:	bf da 33 40 00       	mov    $0x4033da,%edi
  401da6:	e8 c5 ee ff ff       	callq  400c70 <puts@plt>
  401dab:	b8 00 00 00 00       	mov    $0x0,%eax
  401db0:	e8 01 fd ff ff       	callq  401ab6 <check_fail>
  401db5:	0f be 35 6c 43 20 00 	movsbl 0x20436c(%rip),%esi        # 606128 <target_prefix>
  401dbc:	b9 20 55 60 00       	mov    $0x605520,%ecx
  401dc1:	89 da                	mov    %ebx,%edx
  401dc3:	bf f8 33 40 00       	mov    $0x4033f8,%edi
  401dc8:	b8 00 00 00 00       	mov    $0x0,%eax
  401dcd:	e8 ce ee ff ff       	callq  400ca0 <printf@plt>
  401dd2:	eb 1e                	jmp    401df2 <validate+0xa4>
  401dd4:	39 1d 22 37 20 00    	cmp    %ebx,0x203722(%rip)        # 6054fc <vlevel>
  401dda:	74 20                	je     401dfc <validate+0xae>
  401ddc:	bf da 33 40 00       	mov    $0x4033da,%edi
  401de1:	e8 8a ee ff ff       	callq  400c70 <puts@plt>
  401de6:	89 de                	mov    %ebx,%esi
  401de8:	bf 00 00 00 00       	mov    $0x0,%edi
  401ded:	e8 9e fd ff ff       	callq  401b90 <notify_server>
  401df2:	bf 00 00 00 00       	mov    $0x0,%edi
  401df7:	e8 d4 ef ff ff       	callq  400dd0 <exit@plt>
  401dfc:	0f be 15 25 43 20 00 	movsbl 0x204325(%rip),%edx        # 606128 <target_prefix>
  401e03:	89 de                	mov    %ebx,%esi
  401e05:	bf 40 35 40 00       	mov    $0x403540,%edi
  401e0a:	b8 00 00 00 00       	mov    $0x0,%eax
  401e0f:	e8 8c ee ff ff       	callq  400ca0 <printf@plt>
  401e14:	89 de                	mov    %ebx,%esi
  401e16:	bf 01 00 00 00       	mov    $0x1,%edi
  401e1b:	e8 70 fd ff ff       	callq  401b90 <notify_server>
  401e20:	eb d0                	jmp    401df2 <validate+0xa4>

0000000000401e22 <fail>:
  401e22:	48 83 ec 08          	sub    $0x8,%rsp
  401e26:	83 3d db 36 20 00 00 	cmpl   $0x0,0x2036db(%rip)        # 605508 <is_checker>
  401e2d:	75 11                	jne    401e40 <fail+0x1e>
  401e2f:	89 fe                	mov    %edi,%esi
  401e31:	bf 00 00 00 00       	mov    $0x0,%edi
  401e36:	e8 55 fd ff ff       	callq  401b90 <notify_server>
  401e3b:	48 83 c4 08          	add    $0x8,%rsp
  401e3f:	c3                   	retq   
  401e40:	b8 00 00 00 00       	mov    $0x0,%eax
  401e45:	e8 6c fc ff ff       	callq  401ab6 <check_fail>

0000000000401e4a <bushandler>:
  401e4a:	48 83 ec 08          	sub    $0x8,%rsp
  401e4e:	83 3d b3 36 20 00 00 	cmpl   $0x0,0x2036b3(%rip)        # 605508 <is_checker>
  401e55:	74 14                	je     401e6b <bushandler+0x21>
  401e57:	bf 0d 34 40 00       	mov    $0x40340d,%edi
  401e5c:	e8 0f ee ff ff       	callq  400c70 <puts@plt>
  401e61:	b8 00 00 00 00       	mov    $0x0,%eax
  401e66:	e8 4b fc ff ff       	callq  401ab6 <check_fail>
  401e6b:	bf 78 35 40 00       	mov    $0x403578,%edi
  401e70:	e8 fb ed ff ff       	callq  400c70 <puts@plt>
  401e75:	bf 17 34 40 00       	mov    $0x403417,%edi
  401e7a:	e8 f1 ed ff ff       	callq  400c70 <puts@plt>
  401e7f:	be 00 00 00 00       	mov    $0x0,%esi
  401e84:	bf 00 00 00 00       	mov    $0x0,%edi
  401e89:	e8 02 fd ff ff       	callq  401b90 <notify_server>
  401e8e:	bf 01 00 00 00       	mov    $0x1,%edi
  401e93:	e8 38 ef ff ff       	callq  400dd0 <exit@plt>

0000000000401e98 <seghandler>:
  401e98:	48 83 ec 08          	sub    $0x8,%rsp
  401e9c:	83 3d 65 36 20 00 00 	cmpl   $0x0,0x203665(%rip)        # 605508 <is_checker>
  401ea3:	74 14                	je     401eb9 <seghandler+0x21>
  401ea5:	bf 2d 34 40 00       	mov    $0x40342d,%edi
  401eaa:	e8 c1 ed ff ff       	callq  400c70 <puts@plt>
  401eaf:	b8 00 00 00 00       	mov    $0x0,%eax
  401eb4:	e8 fd fb ff ff       	callq  401ab6 <check_fail>
  401eb9:	bf 98 35 40 00       	mov    $0x403598,%edi
  401ebe:	e8 ad ed ff ff       	callq  400c70 <puts@plt>
  401ec3:	bf 17 34 40 00       	mov    $0x403417,%edi
  401ec8:	e8 a3 ed ff ff       	callq  400c70 <puts@plt>
  401ecd:	be 00 00 00 00       	mov    $0x0,%esi
  401ed2:	bf 00 00 00 00       	mov    $0x0,%edi
  401ed7:	e8 b4 fc ff ff       	callq  401b90 <notify_server>
  401edc:	bf 01 00 00 00       	mov    $0x1,%edi
  401ee1:	e8 ea ee ff ff       	callq  400dd0 <exit@plt>

0000000000401ee6 <illegalhandler>:
  401ee6:	48 83 ec 08          	sub    $0x8,%rsp
  401eea:	83 3d 17 36 20 00 00 	cmpl   $0x0,0x203617(%rip)        # 605508 <is_checker>
  401ef1:	74 14                	je     401f07 <illegalhandler+0x21>
  401ef3:	bf 40 34 40 00       	mov    $0x403440,%edi
  401ef8:	e8 73 ed ff ff       	callq  400c70 <puts@plt>
  401efd:	b8 00 00 00 00       	mov    $0x0,%eax
  401f02:	e8 af fb ff ff       	callq  401ab6 <check_fail>
  401f07:	bf c0 35 40 00       	mov    $0x4035c0,%edi
  401f0c:	e8 5f ed ff ff       	callq  400c70 <puts@plt>
  401f11:	bf 17 34 40 00       	mov    $0x403417,%edi
  401f16:	e8 55 ed ff ff       	callq  400c70 <puts@plt>
  401f1b:	be 00 00 00 00       	mov    $0x0,%esi
  401f20:	bf 00 00 00 00       	mov    $0x0,%edi
  401f25:	e8 66 fc ff ff       	callq  401b90 <notify_server>
  401f2a:	bf 01 00 00 00       	mov    $0x1,%edi
  401f2f:	e8 9c ee ff ff       	callq  400dd0 <exit@plt>

0000000000401f34 <sigalrmhandler>:
  401f34:	48 83 ec 08          	sub    $0x8,%rsp
  401f38:	83 3d c9 35 20 00 00 	cmpl   $0x0,0x2035c9(%rip)        # 605508 <is_checker>
  401f3f:	74 14                	je     401f55 <sigalrmhandler+0x21>
  401f41:	bf 54 34 40 00       	mov    $0x403454,%edi
  401f46:	e8 25 ed ff ff       	callq  400c70 <puts@plt>
  401f4b:	b8 00 00 00 00       	mov    $0x0,%eax
  401f50:	e8 61 fb ff ff       	callq  401ab6 <check_fail>
  401f55:	be 05 00 00 00       	mov    $0x5,%esi
  401f5a:	bf f0 35 40 00       	mov    $0x4035f0,%edi
  401f5f:	b8 00 00 00 00       	mov    $0x0,%eax
  401f64:	e8 37 ed ff ff       	callq  400ca0 <printf@plt>
  401f69:	be 00 00 00 00       	mov    $0x0,%esi
  401f6e:	bf 00 00 00 00       	mov    $0x0,%edi
  401f73:	e8 18 fc ff ff       	callq  401b90 <notify_server>
  401f78:	bf 01 00 00 00       	mov    $0x1,%edi
  401f7d:	e8 4e ee ff ff       	callq  400dd0 <exit@plt>

0000000000401f82 <launch>:
  401f82:	55                   	push   %rbp
  401f83:	48 89 e5             	mov    %rsp,%rbp
  401f86:	48 89 fa             	mov    %rdi,%rdx
  401f89:	48 8d 47 17          	lea    0x17(%rdi),%rax
  401f8d:	48 83 e0 f0          	and    $0xfffffffffffffff0,%rax
  401f91:	48 29 c4             	sub    %rax,%rsp
  401f94:	48 8d 7c 24 0f       	lea    0xf(%rsp),%rdi
  401f99:	48 83 e7 f0          	and    $0xfffffffffffffff0,%rdi
  401f9d:	be f4 00 00 00       	mov    $0xf4,%esi
  401fa2:	e8 09 ed ff ff       	callq  400cb0 <memset@plt>
  401fa7:	48 8b 05 f2 34 20 00 	mov    0x2034f2(%rip),%rax        # 6054a0 <stdin@@GLIBC_2.2.5>
  401fae:	48 39 05 3b 35 20 00 	cmp    %rax,0x20353b(%rip)        # 6054f0 <infile>
  401fb5:	74 29                	je     401fe0 <launch+0x5e>
  401fb7:	c7 05 3b 35 20 00 00 	movl   $0x0,0x20353b(%rip)        # 6054fc <vlevel>
  401fbe:	00 00 00 
  401fc1:	b8 00 00 00 00       	mov    $0x0,%eax
  401fc6:	e8 a5 f9 ff ff       	callq  401970 <test>
  401fcb:	83 3d 36 35 20 00 00 	cmpl   $0x0,0x203536(%rip)        # 605508 <is_checker>
  401fd2:	75 1d                	jne    401ff1 <launch+0x6f>
  401fd4:	bf 74 34 40 00       	mov    $0x403474,%edi
  401fd9:	e8 92 ec ff ff       	callq  400c70 <puts@plt>
  401fde:	c9                   	leaveq 
  401fdf:	c3                   	retq   
  401fe0:	bf 5c 34 40 00       	mov    $0x40345c,%edi
  401fe5:	b8 00 00 00 00       	mov    $0x0,%eax
  401fea:	e8 b1 ec ff ff       	callq  400ca0 <printf@plt>
  401fef:	eb c6                	jmp    401fb7 <launch+0x35>
  401ff1:	bf 69 34 40 00       	mov    $0x403469,%edi
  401ff6:	e8 75 ec ff ff       	callq  400c70 <puts@plt>
  401ffb:	b8 00 00 00 00       	mov    $0x0,%eax
  402000:	e8 b1 fa ff ff       	callq  401ab6 <check_fail>

0000000000402005 <stable_launch>:
  402005:	48 83 ec 08          	sub    $0x8,%rsp
  402009:	48 89 3d d8 34 20 00 	mov    %rdi,0x2034d8(%rip)        # 6054e8 <global_offset>
  402010:	41 b9 00 00 00 00    	mov    $0x0,%r9d
  402016:	41 b8 00 00 00 00    	mov    $0x0,%r8d
  40201c:	b9 32 01 00 00       	mov    $0x132,%ecx
  402021:	ba 07 00 00 00       	mov    $0x7,%edx
  402026:	be 00 00 10 00       	mov    $0x100000,%esi
  40202b:	bf 00 60 58 55       	mov    $0x55586000,%edi
  402030:	e8 5b ec ff ff       	callq  400c90 <mmap@plt>
  402035:	48 3d 00 60 58 55    	cmp    $0x55586000,%rax
  40203b:	75 4a                	jne    402087 <stable_launch+0x82>
  40203d:	48 c7 05 e8 40 20 00 	movq   $0x55685ff8,0x2040e8(%rip)        # 606130 <stack_top>
  402044:	f8 5f 68 55 
  402048:	ba f8 5f 68 55       	mov    $0x55685ff8,%edx
  40204d:	48 89 e0             	mov    %rsp,%rax
  402050:	48 89 d4             	mov    %rdx,%rsp
  402053:	48 89 c2             	mov    %rax,%rdx
  402056:	48 89 15 83 34 20 00 	mov    %rdx,0x203483(%rip)        # 6054e0 <global_save_stack>
  40205d:	48 8b 3d 84 34 20 00 	mov    0x203484(%rip),%rdi        # 6054e8 <global_offset>
  402064:	e8 19 ff ff ff       	callq  401f82 <launch>
  402069:	48 8b 05 70 34 20 00 	mov    0x203470(%rip),%rax        # 6054e0 <global_save_stack>
  402070:	48 89 c4             	mov    %rax,%rsp
  402073:	be 00 00 10 00       	mov    $0x100000,%esi
  402078:	bf 00 60 58 55       	mov    $0x55586000,%edi
  40207d:	e8 de ec ff ff       	callq  400d60 <munmap@plt>
  402082:	48 83 c4 08          	add    $0x8,%rsp
  402086:	c3                   	retq   
  402087:	be 00 00 10 00       	mov    $0x100000,%esi
  40208c:	48 89 c7             	mov    %rax,%rdi
  40208f:	e8 cc ec ff ff       	callq  400d60 <munmap@plt>
  402094:	ba 00 60 58 55       	mov    $0x55586000,%edx
  402099:	be 28 36 40 00       	mov    $0x403628,%esi
  40209e:	48 8b 3d 1b 34 20 00 	mov    0x20341b(%rip),%rdi        # 6054c0 <stderr@@GLIBC_2.2.5>
  4020a5:	b8 00 00 00 00       	mov    $0x0,%eax
  4020aa:	e8 61 ec ff ff       	callq  400d10 <fprintf@plt>
  4020af:	bf 01 00 00 00       	mov    $0x1,%edi
  4020b4:	e8 17 ed ff ff       	callq  400dd0 <exit@plt>

00000000004020b9 <sigalrm_handler>:
  4020b9:	48 83 ec 08          	sub    $0x8,%rsp
  4020bd:	ba 00 00 00 00       	mov    $0x0,%edx
  4020c2:	be 60 36 40 00       	mov    $0x403660,%esi
  4020c7:	48 8b 3d f2 33 20 00 	mov    0x2033f2(%rip),%rdi        # 6054c0 <stderr@@GLIBC_2.2.5>
  4020ce:	b8 00 00 00 00       	mov    $0x0,%eax
  4020d3:	e8 38 ec ff ff       	callq  400d10 <fprintf@plt>
  4020d8:	bf 01 00 00 00       	mov    $0x1,%edi
  4020dd:	e8 ee ec ff ff       	callq  400dd0 <exit@plt>

00000000004020e2 <rio_readlineb>:
  4020e2:	41 56                	push   %r14
  4020e4:	41 55                	push   %r13
  4020e6:	41 54                	push   %r12
  4020e8:	55                   	push   %rbp
  4020e9:	53                   	push   %rbx
  4020ea:	48 89 f5             	mov    %rsi,%rbp
  4020ed:	48 83 fa 01          	cmp    $0x1,%rdx
  4020f1:	0f 86 9d 00 00 00    	jbe    402194 <rio_readlineb+0xb2>
  4020f7:	48 89 fb             	mov    %rdi,%rbx
  4020fa:	4c 8d 74 16 ff       	lea    -0x1(%rsi,%rdx,1),%r14
  4020ff:	41 bd 01 00 00 00    	mov    $0x1,%r13d
  402105:	4c 8d 67 10          	lea    0x10(%rdi),%r12
  402109:	eb 17                	jmp    402122 <rio_readlineb+0x40>
  40210b:	e8 20 eb ff ff       	callq  400c30 <__errno_location@plt>
  402110:	83 38 04             	cmpl   $0x4,(%rax)
  402113:	74 0d                	je     402122 <rio_readlineb+0x40>
  402115:	48 c7 c0 ff ff ff ff 	mov    $0xffffffffffffffff,%rax
  40211c:	eb 28                	jmp    402146 <rio_readlineb+0x64>
  40211e:	4c 89 63 08          	mov    %r12,0x8(%rbx)
  402122:	8b 43 04             	mov    0x4(%rbx),%eax
  402125:	85 c0                	test   %eax,%eax
  402127:	7f 2e                	jg     402157 <rio_readlineb+0x75>
  402129:	ba 00 20 00 00       	mov    $0x2000,%edx
  40212e:	4c 89 e6             	mov    %r12,%rsi
  402131:	8b 3b                	mov    (%rbx),%edi
  402133:	e8 a8 eb ff ff       	callq  400ce0 <read@plt>
  402138:	89 43 04             	mov    %eax,0x4(%rbx)
  40213b:	85 c0                	test   %eax,%eax
  40213d:	78 cc                	js     40210b <rio_readlineb+0x29>
  40213f:	75 dd                	jne    40211e <rio_readlineb+0x3c>
  402141:	b8 00 00 00 00       	mov    $0x0,%eax
  402146:	85 c0                	test   %eax,%eax
  402148:	75 52                	jne    40219c <rio_readlineb+0xba>
  40214a:	b8 00 00 00 00       	mov    $0x0,%eax
  40214f:	49 83 fd 01          	cmp    $0x1,%r13
  402153:	75 2f                	jne    402184 <rio_readlineb+0xa2>
  402155:	eb 34                	jmp    40218b <rio_readlineb+0xa9>
  402157:	48 8b 53 08          	mov    0x8(%rbx),%rdx
  40215b:	0f b6 0a             	movzbl (%rdx),%ecx
  40215e:	48 83 c2 01          	add    $0x1,%rdx
  402162:	48 89 53 08          	mov    %rdx,0x8(%rbx)
  402166:	83 e8 01             	sub    $0x1,%eax
  402169:	89 43 04             	mov    %eax,0x4(%rbx)
  40216c:	48 83 c5 01          	add    $0x1,%rbp
  402170:	88 4d ff             	mov    %cl,-0x1(%rbp)
  402173:	80 f9 0a             	cmp    $0xa,%cl
  402176:	74 0c                	je     402184 <rio_readlineb+0xa2>
  402178:	49 83 c5 01          	add    $0x1,%r13
  40217c:	4c 39 f5             	cmp    %r14,%rbp
  40217f:	75 a1                	jne    402122 <rio_readlineb+0x40>
  402181:	4c 89 f5             	mov    %r14,%rbp
  402184:	c6 45 00 00          	movb   $0x0,0x0(%rbp)
  402188:	4c 89 e8             	mov    %r13,%rax
  40218b:	5b                   	pop    %rbx
  40218c:	5d                   	pop    %rbp
  40218d:	41 5c                	pop    %r12
  40218f:	41 5d                	pop    %r13
  402191:	41 5e                	pop    %r14
  402193:	c3                   	retq   
  402194:	41 bd 01 00 00 00    	mov    $0x1,%r13d
  40219a:	eb e8                	jmp    402184 <rio_readlineb+0xa2>
  40219c:	48 c7 c0 ff ff ff ff 	mov    $0xffffffffffffffff,%rax
  4021a3:	eb e6                	jmp    40218b <rio_readlineb+0xa9>

00000000004021a5 <submitr>:
  4021a5:	41 57                	push   %r15
  4021a7:	41 56                	push   %r14
  4021a9:	41 55                	push   %r13
  4021ab:	41 54                	push   %r12
  4021ad:	55                   	push   %rbp
  4021ae:	53                   	push   %rbx
  4021af:	48 81 ec 68 a0 00 00 	sub    $0xa068,%rsp
  4021b6:	48 89 7c 24 08       	mov    %rdi,0x8(%rsp)
  4021bb:	89 f5                	mov    %esi,%ebp
  4021bd:	48 89 54 24 10       	mov    %rdx,0x10(%rsp)
  4021c2:	48 89 4c 24 18       	mov    %rcx,0x18(%rsp)
  4021c7:	4d 89 c5             	mov    %r8,%r13
  4021ca:	4c 89 cb             	mov    %r9,%rbx
  4021cd:	4c 8b bc 24 a0 a0 00 	mov    0xa0a0(%rsp),%r15
  4021d4:	00 
  4021d5:	c7 84 24 3c 20 00 00 	movl   $0x0,0x203c(%rsp)
  4021dc:	00 00 00 00 
  4021e0:	ba 00 00 00 00       	mov    $0x0,%edx
  4021e5:	be 01 00 00 00       	mov    $0x1,%esi
  4021ea:	bf 02 00 00 00       	mov    $0x2,%edi
  4021ef:	e8 0c ec ff ff       	callq  400e00 <socket@plt>
  4021f4:	85 c0                	test   %eax,%eax
  4021f6:	0f 88 34 01 00 00    	js     402330 <submitr+0x18b>
  4021fc:	41 89 c4             	mov    %eax,%r12d
  4021ff:	48 8b 7c 24 08       	mov    0x8(%rsp),%rdi
  402204:	e8 f7 ea ff ff       	callq  400d00 <gethostbyname@plt>
  402209:	48 85 c0             	test   %rax,%rax
  40220c:	0f 84 6e 01 00 00    	je     402380 <submitr+0x1db>
  402212:	48 8d b4 24 50 a0 00 	lea    0xa050(%rsp),%rsi
  402219:	00 
  40221a:	48 c7 84 24 52 a0 00 	movq   $0x0,0xa052(%rsp)
  402221:	00 00 00 00 00 
  402226:	c7 84 24 5a a0 00 00 	movl   $0x0,0xa05a(%rsp)
  40222d:	00 00 00 00 
  402231:	66 c7 84 24 5e a0 00 	movw   $0x0,0xa05e(%rsp)
  402238:	00 00 00 
  40223b:	66 c7 84 24 50 a0 00 	movw   $0x2,0xa050(%rsp)
  402242:	00 02 00 
  402245:	48 63 50 14          	movslq 0x14(%rax),%rdx
  402249:	48 8b 40 18          	mov    0x18(%rax),%rax
  40224d:	48 8d 7e 04          	lea    0x4(%rsi),%rdi
  402251:	48 8b 30             	mov    (%rax),%rsi
  402254:	e8 17 eb ff ff       	callq  400d70 <memmove@plt>
  402259:	66 c1 c5 08          	rol    $0x8,%bp
  40225d:	66 89 ac 24 52 a0 00 	mov    %bp,0xa052(%rsp)
  402264:	00 
  402265:	ba 10 00 00 00       	mov    $0x10,%edx
  40226a:	48 8d b4 24 50 a0 00 	lea    0xa050(%rsp),%rsi
  402271:	00 
  402272:	44 89 e7             	mov    %r12d,%edi
  402275:	e8 66 eb ff ff       	callq  400de0 <connect@plt>
  40227a:	85 c0                	test   %eax,%eax
  40227c:	0f 88 69 01 00 00    	js     4023eb <submitr+0x246>
  402282:	49 c7 c1 ff ff ff ff 	mov    $0xffffffffffffffff,%r9
  402289:	b8 00 00 00 00       	mov    $0x0,%eax
  40228e:	4c 89 c9             	mov    %r9,%rcx
  402291:	48 89 df             	mov    %rbx,%rdi
  402294:	f2 ae                	repnz scas %es:(%rdi),%al
  402296:	48 89 ce             	mov    %rcx,%rsi
  402299:	48 f7 d6             	not    %rsi
  40229c:	4c 89 c9             	mov    %r9,%rcx
  40229f:	48 8b 7c 24 10       	mov    0x10(%rsp),%rdi
  4022a4:	f2 ae                	repnz scas %es:(%rdi),%al
  4022a6:	49 89 c8             	mov    %rcx,%r8
  4022a9:	4c 89 c9             	mov    %r9,%rcx
  4022ac:	48 8b 7c 24 18       	mov    0x18(%rsp),%rdi
  4022b1:	f2 ae                	repnz scas %es:(%rdi),%al
  4022b3:	48 f7 d1             	not    %rcx
  4022b6:	48 89 ca             	mov    %rcx,%rdx
  4022b9:	4c 89 c9             	mov    %r9,%rcx
  4022bc:	4c 89 ef             	mov    %r13,%rdi
  4022bf:	f2 ae                	repnz scas %es:(%rdi),%al
  4022c1:	4c 29 c2             	sub    %r8,%rdx
  4022c4:	48 29 ca             	sub    %rcx,%rdx
  4022c7:	48 8d 44 76 fd       	lea    -0x3(%rsi,%rsi,2),%rax
  4022cc:	48 8d 44 02 7b       	lea    0x7b(%rdx,%rax,1),%rax
  4022d1:	48 3d 00 20 00 00    	cmp    $0x2000,%rax
  4022d7:	0f 87 6b 01 00 00    	ja     402448 <submitr+0x2a3>
  4022dd:	48 8d 94 24 40 40 00 	lea    0x4040(%rsp),%rdx
  4022e4:	00 
  4022e5:	b9 00 04 00 00       	mov    $0x400,%ecx
  4022ea:	b8 00 00 00 00       	mov    $0x0,%eax
  4022ef:	48 89 d7             	mov    %rdx,%rdi
  4022f2:	f3 48 ab             	rep stos %rax,%es:(%rdi)
  4022f5:	48 c7 c1 ff ff ff ff 	mov    $0xffffffffffffffff,%rcx
  4022fc:	48 89 df             	mov    %rbx,%rdi
  4022ff:	f2 ae                	repnz scas %es:(%rdi),%al
  402301:	48 89 ce             	mov    %rcx,%rsi
  402304:	48 f7 d6             	not    %rsi
  402307:	48 89 f1             	mov    %rsi,%rcx
  40230a:	48 83 e9 01          	sub    $0x1,%rcx
  40230e:	85 c9                	test   %ecx,%ecx
  402310:	0f 84 38 05 00 00    	je     40284e <submitr+0x6a9>
  402316:	8d 41 ff             	lea    -0x1(%rcx),%eax
  402319:	4c 8d 74 03 01       	lea    0x1(%rbx,%rax,1),%r14
  40231e:	48 89 d5             	mov    %rdx,%rbp
  402321:	49 bd d9 ff 00 00 00 	movabs $0x2000000000ffd9,%r13
  402328:	00 20 00 
  40232b:	e9 a5 01 00 00       	jmpq   4024d5 <submitr+0x330>
  402330:	48 b8 45 72 72 6f 72 	movabs $0x43203a726f727245,%rax
  402337:	3a 20 43 
  40233a:	48 ba 6c 69 65 6e 74 	movabs $0x6e7520746e65696c,%rdx
  402341:	20 75 6e 
  402344:	49 89 07             	mov    %rax,(%r15)
  402347:	49 89 57 08          	mov    %rdx,0x8(%r15)
  40234b:	48 b8 61 62 6c 65 20 	movabs $0x206f7420656c6261,%rax
  402352:	74 6f 20 
  402355:	48 ba 63 72 65 61 74 	movabs $0x7320657461657263,%rdx
  40235c:	65 20 73 
  40235f:	49 89 47 10          	mov    %rax,0x10(%r15)
  402363:	49 89 57 18          	mov    %rdx,0x18(%r15)
  402367:	41 c7 47 20 6f 63 6b 	movl   $0x656b636f,0x20(%r15)
  40236e:	65 
  40236f:	66 41 c7 47 24 74 00 	movw   $0x74,0x24(%r15)
  402376:	b8 ff ff ff ff       	mov    $0xffffffff,%eax
  40237b:	e9 54 06 00 00       	jmpq   4029d4 <submitr+0x82f>
  402380:	48 b8 45 72 72 6f 72 	movabs $0x44203a726f727245,%rax
  402387:	3a 20 44 
  40238a:	48 ba 4e 53 20 69 73 	movabs $0x6e7520736920534e,%rdx
  402391:	20 75 6e 
  402394:	49 89 07             	mov    %rax,(%r15)
  402397:	49 89 57 08          	mov    %rdx,0x8(%r15)
  40239b:	48 b8 61 62 6c 65 20 	movabs $0x206f7420656c6261,%rax
  4023a2:	74 6f 20 
  4023a5:	48 ba 72 65 73 6f 6c 	movabs $0x2065766c6f736572,%rdx
  4023ac:	76 65 20 
  4023af:	49 89 47 10          	mov    %rax,0x10(%r15)
  4023b3:	49 89 57 18          	mov    %rdx,0x18(%r15)
  4023b7:	48 b8 73 65 72 76 65 	movabs $0x6120726576726573,%rax
  4023be:	72 20 61 
  4023c1:	49 89 47 20          	mov    %rax,0x20(%r15)
  4023c5:	41 c7 47 28 64 64 72 	movl   $0x65726464,0x28(%r15)
  4023cc:	65 
  4023cd:	66 41 c7 47 2c 73 73 	movw   $0x7373,0x2c(%r15)
  4023d4:	41 c6 47 2e 00       	movb   $0x0,0x2e(%r15)
  4023d9:	44 89 e7             	mov    %r12d,%edi
  4023dc:	e8 ef e8 ff ff       	callq  400cd0 <close@plt>
  4023e1:	b8 ff ff ff ff       	mov    $0xffffffff,%eax
  4023e6:	e9 e9 05 00 00       	jmpq   4029d4 <submitr+0x82f>
  4023eb:	48 b8 45 72 72 6f 72 	movabs $0x55203a726f727245,%rax
  4023f2:	3a 20 55 
  4023f5:	48 ba 6e 61 62 6c 65 	movabs $0x6f7420656c62616e,%rdx
  4023fc:	20 74 6f 
  4023ff:	49 89 07             	mov    %rax,(%r15)
  402402:	49 89 57 08          	mov    %rdx,0x8(%r15)
  402406:	48 b8 20 63 6f 6e 6e 	movabs $0x7463656e6e6f6320,%rax
  40240d:	65 63 74 
  402410:	48 ba 20 74 6f 20 74 	movabs $0x20656874206f7420,%rdx
  402417:	68 65 20 
  40241a:	49 89 47 10          	mov    %rax,0x10(%r15)
  40241e:	49 89 57 18          	mov    %rdx,0x18(%r15)
  402422:	41 c7 47 20 73 65 72 	movl   $0x76726573,0x20(%r15)
  402429:	76 
  40242a:	66 41 c7 47 24 65 72 	movw   $0x7265,0x24(%r15)
  402431:	41 c6 47 26 00       	movb   $0x0,0x26(%r15)
  402436:	44 89 e7             	mov    %r12d,%edi
  402439:	e8 92 e8 ff ff       	callq  400cd0 <close@plt>
  40243e:	b8 ff ff ff ff       	mov    $0xffffffff,%eax
  402443:	e9 8c 05 00 00       	jmpq   4029d4 <submitr+0x82f>
  402448:	48 b8 45 72 72 6f 72 	movabs $0x52203a726f727245,%rax
  40244f:	3a 20 52 
  402452:	48 ba 65 73 75 6c 74 	movabs $0x747320746c757365,%rdx
  402459:	20 73 74 
  40245c:	49 89 07             	mov    %rax,(%r15)
  40245f:	49 89 57 08          	mov    %rdx,0x8(%r15)
  402463:	48 b8 72 69 6e 67 20 	movabs $0x6f6f7420676e6972,%rax
  40246a:	74 6f 6f 
  40246d:	48 ba 20 6c 61 72 67 	movabs $0x202e656772616c20,%rdx
  402474:	65 2e 20 
  402477:	49 89 47 10          	mov    %rax,0x10(%r15)
  40247b:	49 89 57 18          	mov    %rdx,0x18(%r15)
  40247f:	48 b8 49 6e 63 72 65 	movabs $0x6573616572636e49,%rax
  402486:	61 73 65 
  402489:	48 ba 20 53 55 42 4d 	movabs $0x5254494d42555320,%rdx
  402490:	49 54 52 
  402493:	49 89 47 20          	mov    %rax,0x20(%r15)
  402497:	49 89 57 28          	mov    %rdx,0x28(%r15)
  40249b:	48 b8 5f 4d 41 58 42 	movabs $0x46554258414d5f,%rax
  4024a2:	55 46 00 
  4024a5:	49 89 47 30          	mov    %rax,0x30(%r15)
  4024a9:	44 89 e7             	mov    %r12d,%edi
  4024ac:	e8 1f e8 ff ff       	callq  400cd0 <close@plt>
  4024b1:	b8 ff ff ff ff       	mov    $0xffffffff,%eax
  4024b6:	e9 19 05 00 00       	jmpq   4029d4 <submitr+0x82f>
  4024bb:	49 0f a3 c5          	bt     %rax,%r13
  4024bf:	73 1e                	jae    4024df <submitr+0x33a>
  4024c1:	88 55 00             	mov    %dl,0x0(%rbp)
  4024c4:	48 8d 6d 01          	lea    0x1(%rbp),%rbp
  4024c8:	48 83 c3 01          	add    $0x1,%rbx
  4024cc:	4c 39 f3             	cmp    %r14,%rbx
  4024cf:	0f 84 79 03 00 00    	je     40284e <submitr+0x6a9>
  4024d5:	0f b6 13             	movzbl (%rbx),%edx
  4024d8:	8d 42 d6             	lea    -0x2a(%rdx),%eax
  4024db:	3c 35                	cmp    $0x35,%al
  4024dd:	76 dc                	jbe    4024bb <submitr+0x316>
  4024df:	89 d0                	mov    %edx,%eax
  4024e1:	83 e0 df             	and    $0xffffffdf,%eax
  4024e4:	83 e8 41             	sub    $0x41,%eax
  4024e7:	3c 19                	cmp    $0x19,%al
  4024e9:	76 d6                	jbe    4024c1 <submitr+0x31c>
  4024eb:	80 fa 20             	cmp    $0x20,%dl
  4024ee:	74 45                	je     402535 <submitr+0x390>
  4024f0:	8d 42 e0             	lea    -0x20(%rdx),%eax
  4024f3:	3c 5f                	cmp    $0x5f,%al
  4024f5:	76 09                	jbe    402500 <submitr+0x35b>
  4024f7:	80 fa 09             	cmp    $0x9,%dl
  4024fa:	0f 85 c1 02 00 00    	jne    4027c1 <submitr+0x61c>
  402500:	0f b6 d2             	movzbl %dl,%edx
  402503:	be f8 36 40 00       	mov    $0x4036f8,%esi
  402508:	48 8d 7c 24 28       	lea    0x28(%rsp),%rdi
  40250d:	b8 00 00 00 00       	mov    $0x0,%eax
  402512:	e8 a9 e8 ff ff       	callq  400dc0 <sprintf@plt>
  402517:	0f b6 44 24 28       	movzbl 0x28(%rsp),%eax
  40251c:	88 45 00             	mov    %al,0x0(%rbp)
  40251f:	0f b6 44 24 29       	movzbl 0x29(%rsp),%eax
  402524:	88 45 01             	mov    %al,0x1(%rbp)
  402527:	0f b6 44 24 2a       	movzbl 0x2a(%rsp),%eax
  40252c:	88 45 02             	mov    %al,0x2(%rbp)
  40252f:	48 8d 6d 03          	lea    0x3(%rbp),%rbp
  402533:	eb 93                	jmp    4024c8 <submitr+0x323>
  402535:	c6 45 00 2b          	movb   $0x2b,0x0(%rbp)
  402539:	48 8d 6d 01          	lea    0x1(%rbp),%rbp
  40253d:	eb 89                	jmp    4024c8 <submitr+0x323>
  40253f:	48 01 c5             	add    %rax,%rbp
  402542:	48 29 c3             	sub    %rax,%rbx
  402545:	0f 84 63 03 00 00    	je     4028ae <submitr+0x709>
  40254b:	48 89 da             	mov    %rbx,%rdx
  40254e:	48 89 ee             	mov    %rbp,%rsi
  402551:	44 89 e7             	mov    %r12d,%edi
  402554:	e8 27 e7 ff ff       	callq  400c80 <write@plt>
  402559:	48 85 c0             	test   %rax,%rax
  40255c:	7f e1                	jg     40253f <submitr+0x39a>
  40255e:	e8 cd e6 ff ff       	callq  400c30 <__errno_location@plt>
  402563:	83 38 04             	cmpl   $0x4,(%rax)
  402566:	0f 85 e4 01 00 00    	jne    402750 <submitr+0x5ab>
  40256c:	4c 89 e8             	mov    %r13,%rax
  40256f:	eb ce                	jmp    40253f <submitr+0x39a>
  402571:	48 b8 45 72 72 6f 72 	movabs $0x43203a726f727245,%rax
  402578:	3a 20 43 
  40257b:	48 ba 6c 69 65 6e 74 	movabs $0x6e7520746e65696c,%rdx
  402582:	20 75 6e 
  402585:	49 89 07             	mov    %rax,(%r15)
  402588:	49 89 57 08          	mov    %rdx,0x8(%r15)
  40258c:	48 b8 61 62 6c 65 20 	movabs $0x206f7420656c6261,%rax
  402593:	74 6f 20 
  402596:	48 ba 72 65 61 64 20 	movabs $0x7269662064616572,%rdx
  40259d:	66 69 72 
  4025a0:	49 89 47 10          	mov    %rax,0x10(%r15)
  4025a4:	49 89 57 18          	mov    %rdx,0x18(%r15)
  4025a8:	48 b8 73 74 20 68 65 	movabs $0x6564616568207473,%rax
  4025af:	61 64 65 
  4025b2:	48 ba 72 20 66 72 6f 	movabs $0x72206d6f72662072,%rdx
  4025b9:	6d 20 72 
  4025bc:	49 89 47 20          	mov    %rax,0x20(%r15)
  4025c0:	49 89 57 28          	mov    %rdx,0x28(%r15)
  4025c4:	48 b8 65 73 75 6c 74 	movabs $0x657320746c757365,%rax
  4025cb:	20 73 65 
  4025ce:	49 89 47 30          	mov    %rax,0x30(%r15)
  4025d2:	41 c7 47 38 72 76 65 	movl   $0x72657672,0x38(%r15)
  4025d9:	72 
  4025da:	41 c6 47 3c 00       	movb   $0x0,0x3c(%r15)
  4025df:	44 89 e7             	mov    %r12d,%edi
  4025e2:	e8 e9 e6 ff ff       	callq  400cd0 <close@plt>
  4025e7:	b8 ff ff ff ff       	mov    $0xffffffff,%eax
  4025ec:	e9 e3 03 00 00       	jmpq   4029d4 <submitr+0x82f>
  4025f1:	ba 00 20 00 00       	mov    $0x2000,%edx
  4025f6:	48 8d b4 24 40 60 00 	lea    0x6040(%rsp),%rsi
  4025fd:	00 
  4025fe:	48 8d bc 24 40 80 00 	lea    0x8040(%rsp),%rdi
  402605:	00 
  402606:	e8 d7 fa ff ff       	callq  4020e2 <rio_readlineb>
  40260b:	48 85 c0             	test   %rax,%rax
  40260e:	0f 8e 8c 00 00 00    	jle    4026a0 <submitr+0x4fb>
  402614:	8b 94 24 3c 20 00 00 	mov    0x203c(%rsp),%edx
  40261b:	81 fa c8 00 00 00    	cmp    $0xc8,%edx
  402621:	0f 85 00 01 00 00    	jne    402727 <submitr+0x582>
  402627:	48 8d b4 24 40 60 00 	lea    0x6040(%rsp),%rsi
  40262e:	00 
  40262f:	4c 89 ff             	mov    %r15,%rdi
  402632:	e8 29 e6 ff ff       	callq  400c60 <strcpy@plt>
  402637:	44 89 e7             	mov    %r12d,%edi
  40263a:	e8 91 e6 ff ff       	callq  400cd0 <close@plt>
  40263f:	bf 10 37 40 00       	mov    $0x403710,%edi
  402644:	b9 04 00 00 00       	mov    $0x4,%ecx
  402649:	4c 89 fe             	mov    %r15,%rsi
  40264c:	f3 a6                	repz cmpsb %es:(%rdi),%ds:(%rsi)
  40264e:	0f 97 c0             	seta   %al
  402651:	1c 00                	sbb    $0x0,%al
  402653:	0f be c0             	movsbl %al,%eax
  402656:	85 c0                	test   %eax,%eax
  402658:	0f 84 76 03 00 00    	je     4029d4 <submitr+0x82f>
  40265e:	bf 14 37 40 00       	mov    $0x403714,%edi
  402663:	b9 05 00 00 00       	mov    $0x5,%ecx
  402668:	4c 89 fe             	mov    %r15,%rsi
  40266b:	f3 a6                	repz cmpsb %es:(%rdi),%ds:(%rsi)
  40266d:	0f 97 c0             	seta   %al
  402670:	1c 00                	sbb    $0x0,%al
  402672:	0f be c0             	movsbl %al,%eax
  402675:	85 c0                	test   %eax,%eax
  402677:	0f 84 57 03 00 00    	je     4029d4 <submitr+0x82f>
  40267d:	bf 19 37 40 00       	mov    $0x403719,%edi
  402682:	b9 03 00 00 00       	mov    $0x3,%ecx
  402687:	4c 89 fe             	mov    %r15,%rsi
  40268a:	f3 a6                	repz cmpsb %es:(%rdi),%ds:(%rsi)
  40268c:	0f 97 c0             	seta   %al
  40268f:	1c 00                	sbb    $0x0,%al
  402691:	84 c0                	test   %al,%al
  402693:	0f 95 c0             	setne  %al
  402696:	0f b6 c0             	movzbl %al,%eax
  402699:	f7 d8                	neg    %eax
  40269b:	e9 34 03 00 00       	jmpq   4029d4 <submitr+0x82f>
  4026a0:	48 b8 45 72 72 6f 72 	movabs $0x43203a726f727245,%rax
  4026a7:	3a 20 43 
  4026aa:	48 ba 6c 69 65 6e 74 	movabs $0x6e7520746e65696c,%rdx
  4026b1:	20 75 6e 
  4026b4:	49 89 07             	mov    %rax,(%r15)
  4026b7:	49 89 57 08          	mov    %rdx,0x8(%r15)
  4026bb:	48 b8 61 62 6c 65 20 	movabs $0x206f7420656c6261,%rax
  4026c2:	74 6f 20 
  4026c5:	48 ba 72 65 61 64 20 	movabs $0x6174732064616572,%rdx
  4026cc:	73 74 61 
  4026cf:	49 89 47 10          	mov    %rax,0x10(%r15)
  4026d3:	49 89 57 18          	mov    %rdx,0x18(%r15)
  4026d7:	48 b8 74 75 73 20 6d 	movabs $0x7373656d20737574,%rax
  4026de:	65 73 73 
  4026e1:	48 ba 61 67 65 20 66 	movabs $0x6d6f726620656761,%rdx
  4026e8:	72 6f 6d 
  4026eb:	49 89 47 20          	mov    %rax,0x20(%r15)
  4026ef:	49 89 57 28          	mov    %rdx,0x28(%r15)
  4026f3:	48 b8 20 72 65 73 75 	movabs $0x20746c7573657220,%rax
  4026fa:	6c 74 20 
  4026fd:	49 89 47 30          	mov    %rax,0x30(%r15)
  402701:	41 c7 47 38 73 65 72 	movl   $0x76726573,0x38(%r15)
  402708:	76 
  402709:	66 41 c7 47 3c 65 72 	movw   $0x7265,0x3c(%r15)
  402710:	41 c6 47 3e 00       	movb   $0x0,0x3e(%r15)
  402715:	44 89 e7             	mov    %r12d,%edi
  402718:	e8 b3 e5 ff ff       	callq  400cd0 <close@plt>
  40271d:	b8 ff ff ff ff       	mov    $0xffffffff,%eax
  402722:	e9 ad 02 00 00       	jmpq   4029d4 <submitr+0x82f>
  402727:	48 8d 4c 24 30       	lea    0x30(%rsp),%rcx
  40272c:	be 88 36 40 00       	mov    $0x403688,%esi
  402731:	4c 89 ff             	mov    %r15,%rdi
  402734:	b8 00 00 00 00       	mov    $0x0,%eax
  402739:	e8 82 e6 ff ff       	callq  400dc0 <sprintf@plt>
  40273e:	44 89 e7             	mov    %r12d,%edi
  402741:	e8 8a e5 ff ff       	callq  400cd0 <close@plt>
  402746:	b8 ff ff ff ff       	mov    $0xffffffff,%eax
  40274b:	e9 84 02 00 00       	jmpq   4029d4 <submitr+0x82f>
  402750:	48 b8 45 72 72 6f 72 	movabs $0x43203a726f727245,%rax
  402757:	3a 20 43 
  40275a:	48 ba 6c 69 65 6e 74 	movabs $0x6e7520746e65696c,%rdx
  402761:	20 75 6e 
  402764:	49 89 07             	mov    %rax,(%r15)
  402767:	49 89 57 08          	mov    %rdx,0x8(%r15)
  40276b:	48 b8 61 62 6c 65 20 	movabs $0x206f7420656c6261,%rax
  402772:	74 6f 20 
  402775:	48 ba 77 72 69 74 65 	movabs $0x6f74206574697277,%rdx
  40277c:	20 74 6f 
  40277f:	49 89 47 10          	mov    %rax,0x10(%r15)
  402783:	49 89 57 18          	mov    %rdx,0x18(%r15)
  402787:	48 b8 20 74 68 65 20 	movabs $0x7365722065687420,%rax
  40278e:	72 65 73 
  402791:	48 ba 75 6c 74 20 73 	movabs $0x7672657320746c75,%rdx
  402798:	65 72 76 
  40279b:	49 89 47 20          	mov    %rax,0x20(%r15)
  40279f:	49 89 57 28          	mov    %rdx,0x28(%r15)
  4027a3:	66 41 c7 47 30 65 72 	movw   $0x7265,0x30(%r15)
  4027aa:	41 c6 47 32 00       	movb   $0x0,0x32(%r15)
  4027af:	44 89 e7             	mov    %r12d,%edi
  4027b2:	e8 19 e5 ff ff       	callq  400cd0 <close@plt>
  4027b7:	b8 ff ff ff ff       	mov    $0xffffffff,%eax
  4027bc:	e9 13 02 00 00       	jmpq   4029d4 <submitr+0x82f>
  4027c1:	48 b8 45 72 72 6f 72 	movabs $0x52203a726f727245,%rax
  4027c8:	3a 20 52 
  4027cb:	48 ba 65 73 75 6c 74 	movabs $0x747320746c757365,%rdx
  4027d2:	20 73 74 
  4027d5:	49 89 07             	mov    %rax,(%r15)
  4027d8:	49 89 57 08          	mov    %rdx,0x8(%r15)
  4027dc:	48 b8 72 69 6e 67 20 	movabs $0x6e6f6320676e6972,%rax
  4027e3:	63 6f 6e 
  4027e6:	48 ba 74 61 69 6e 73 	movabs $0x6e6120736e696174,%rdx
  4027ed:	20 61 6e 
  4027f0:	49 89 47 10          	mov    %rax,0x10(%r15)
  4027f4:	49 89 57 18          	mov    %rdx,0x18(%r15)
  4027f8:	48 b8 20 69 6c 6c 65 	movabs $0x6c6167656c6c6920,%rax
  4027ff:	67 61 6c 
  402802:	48 ba 20 6f 72 20 75 	movabs $0x72706e7520726f20,%rdx
  402809:	6e 70 72 
  40280c:	49 89 47 20          	mov    %rax,0x20(%r15)
  402810:	49 89 57 28          	mov    %rdx,0x28(%r15)
  402814:	48 b8 69 6e 74 61 62 	movabs $0x20656c6261746e69,%rax
  40281b:	6c 65 20 
  40281e:	48 ba 63 68 61 72 61 	movabs $0x6574636172616863,%rdx
  402825:	63 74 65 
  402828:	49 89 47 30          	mov    %rax,0x30(%r15)
  40282c:	49 89 57 38          	mov    %rdx,0x38(%r15)
  402830:	66 41 c7 47 40 72 2e 	movw   $0x2e72,0x40(%r15)
  402837:	41 c6 47 42 00       	movb   $0x0,0x42(%r15)
  40283c:	44 89 e7             	mov    %r12d,%edi
  40283f:	e8 8c e4 ff ff       	callq  400cd0 <close@plt>
  402844:	b8 ff ff ff ff       	mov    $0xffffffff,%eax
  402849:	e9 86 01 00 00       	jmpq   4029d4 <submitr+0x82f>
  40284e:	48 8d ac 24 40 60 00 	lea    0x6040(%rsp),%rbp
  402855:	00 
  402856:	4c 8b 4c 24 08       	mov    0x8(%rsp),%r9
  40285b:	4c 8d 84 24 40 40 00 	lea    0x4040(%rsp),%r8
  402862:	00 
  402863:	48 8b 4c 24 10       	mov    0x10(%rsp),%rcx
  402868:	48 8b 54 24 18       	mov    0x18(%rsp),%rdx
  40286d:	be b8 36 40 00       	mov    $0x4036b8,%esi
  402872:	48 89 ef             	mov    %rbp,%rdi
  402875:	b8 00 00 00 00       	mov    $0x0,%eax
  40287a:	e8 41 e5 ff ff       	callq  400dc0 <sprintf@plt>
  40287f:	48 c7 c1 ff ff ff ff 	mov    $0xffffffffffffffff,%rcx
  402886:	b8 00 00 00 00       	mov    $0x0,%eax
  40288b:	48 89 ef             	mov    %rbp,%rdi
  40288e:	f2 ae                	repnz scas %es:(%rdi),%al
  402890:	48 f7 d1             	not    %rcx
  402893:	48 8d ac 24 40 60 00 	lea    0x6040(%rsp),%rbp
  40289a:	00 
  40289b:	41 bd 00 00 00 00    	mov    $0x0,%r13d
  4028a1:	48 83 e9 01          	sub    $0x1,%rcx
  4028a5:	48 89 cb             	mov    %rcx,%rbx
  4028a8:	0f 85 9d fc ff ff    	jne    40254b <submitr+0x3a6>
  4028ae:	44 89 a4 24 40 80 00 	mov    %r12d,0x8040(%rsp)
  4028b5:	00 
  4028b6:	c7 84 24 44 80 00 00 	movl   $0x0,0x8044(%rsp)
  4028bd:	00 00 00 00 
  4028c1:	48 8d 84 24 50 80 00 	lea    0x8050(%rsp),%rax
  4028c8:	00 
  4028c9:	48 89 84 24 48 80 00 	mov    %rax,0x8048(%rsp)
  4028d0:	00 
  4028d1:	ba 00 20 00 00       	mov    $0x2000,%edx
  4028d6:	48 8d b4 24 40 60 00 	lea    0x6040(%rsp),%rsi
  4028dd:	00 
  4028de:	48 8d bc 24 40 80 00 	lea    0x8040(%rsp),%rdi
  4028e5:	00 
  4028e6:	e8 f7 f7 ff ff       	callq  4020e2 <rio_readlineb>
  4028eb:	48 85 c0             	test   %rax,%rax
  4028ee:	0f 8e 7d fc ff ff    	jle    402571 <submitr+0x3cc>
  4028f4:	4c 8d 44 24 30       	lea    0x30(%rsp),%r8
  4028f9:	48 8d 8c 24 3c 20 00 	lea    0x203c(%rsp),%rcx
  402900:	00 
  402901:	48 8d 94 24 40 20 00 	lea    0x2040(%rsp),%rdx
  402908:	00 
  402909:	be ff 36 40 00       	mov    $0x4036ff,%esi
  40290e:	48 8d bc 24 40 60 00 	lea    0x6040(%rsp),%rdi
  402915:	00 
  402916:	b8 00 00 00 00       	mov    $0x0,%eax
  40291b:	e8 30 e4 ff ff       	callq  400d50 <__isoc99_sscanf@plt>
  402920:	48 8d 9c 24 40 60 00 	lea    0x6040(%rsp),%rbx
  402927:	00 
  402928:	bf 16 37 40 00       	mov    $0x403716,%edi
  40292d:	b9 03 00 00 00       	mov    $0x3,%ecx
  402932:	48 89 de             	mov    %rbx,%rsi
  402935:	f3 a6                	repz cmpsb %es:(%rdi),%ds:(%rsi)
  402937:	0f 97 c0             	seta   %al
  40293a:	1c 00                	sbb    $0x0,%al
  40293c:	84 c0                	test   %al,%al
  40293e:	0f 84 ad fc ff ff    	je     4025f1 <submitr+0x44c>
  402944:	ba 00 20 00 00       	mov    $0x2000,%edx
  402949:	48 89 de             	mov    %rbx,%rsi
  40294c:	48 8d bc 24 40 80 00 	lea    0x8040(%rsp),%rdi
  402953:	00 
  402954:	e8 89 f7 ff ff       	callq  4020e2 <rio_readlineb>
  402959:	48 85 c0             	test   %rax,%rax
  40295c:	7f ca                	jg     402928 <submitr+0x783>
  40295e:	48 b8 45 72 72 6f 72 	movabs $0x43203a726f727245,%rax
  402965:	3a 20 43 
  402968:	48 ba 6c 69 65 6e 74 	movabs $0x6e7520746e65696c,%rdx
  40296f:	20 75 6e 
  402972:	49 89 07             	mov    %rax,(%r15)
  402975:	49 89 57 08          	mov    %rdx,0x8(%r15)
  402979:	48 b8 61 62 6c 65 20 	movabs $0x206f7420656c6261,%rax
  402980:	74 6f 20 
  402983:	48 ba 72 65 61 64 20 	movabs $0x6165682064616572,%rdx
  40298a:	68 65 61 
  40298d:	49 89 47 10          	mov    %rax,0x10(%r15)
  402991:	49 89 57 18          	mov    %rdx,0x18(%r15)
  402995:	48 b8 64 65 72 73 20 	movabs $0x6f72662073726564,%rax
  40299c:	66 72 6f 
  40299f:	48 ba 6d 20 74 68 65 	movabs $0x657220656874206d,%rdx
  4029a6:	20 72 65 
  4029a9:	49 89 47 20          	mov    %rax,0x20(%r15)
  4029ad:	49 89 57 28          	mov    %rdx,0x28(%r15)
  4029b1:	48 b8 73 75 6c 74 20 	movabs $0x72657320746c7573,%rax
  4029b8:	73 65 72 
  4029bb:	49 89 47 30          	mov    %rax,0x30(%r15)
  4029bf:	41 c7 47 38 76 65 72 	movl   $0x726576,0x38(%r15)
  4029c6:	00 
  4029c7:	44 89 e7             	mov    %r12d,%edi
  4029ca:	e8 01 e3 ff ff       	callq  400cd0 <close@plt>
  4029cf:	b8 ff ff ff ff       	mov    $0xffffffff,%eax
  4029d4:	48 81 c4 68 a0 00 00 	add    $0xa068,%rsp
  4029db:	5b                   	pop    %rbx
  4029dc:	5d                   	pop    %rbp
  4029dd:	41 5c                	pop    %r12
  4029df:	41 5d                	pop    %r13
  4029e1:	41 5e                	pop    %r14
  4029e3:	41 5f                	pop    %r15
  4029e5:	c3                   	retq   

00000000004029e6 <init_timeout>:
  4029e6:	85 ff                	test   %edi,%edi
  4029e8:	74 23                	je     402a0d <init_timeout+0x27>
  4029ea:	53                   	push   %rbx
  4029eb:	89 fb                	mov    %edi,%ebx
  4029ed:	be b9 20 40 00       	mov    $0x4020b9,%esi
  4029f2:	bf 0e 00 00 00       	mov    $0xe,%edi
  4029f7:	e8 f4 e2 ff ff       	callq  400cf0 <signal@plt>
  4029fc:	85 db                	test   %ebx,%ebx
  4029fe:	bf 00 00 00 00       	mov    $0x0,%edi
  402a03:	0f 49 fb             	cmovns %ebx,%edi
  402a06:	e8 b5 e2 ff ff       	callq  400cc0 <alarm@plt>
  402a0b:	5b                   	pop    %rbx
  402a0c:	c3                   	retq   
  402a0d:	c3                   	retq   

0000000000402a0e <init_driver>:
  402a0e:	55                   	push   %rbp
  402a0f:	53                   	push   %rbx
  402a10:	48 83 ec 18          	sub    $0x18,%rsp
  402a14:	48 89 fd             	mov    %rdi,%rbp
  402a17:	be 01 00 00 00       	mov    $0x1,%esi
  402a1c:	bf 0d 00 00 00       	mov    $0xd,%edi
  402a21:	e8 ca e2 ff ff       	callq  400cf0 <signal@plt>
  402a26:	be 01 00 00 00       	mov    $0x1,%esi
  402a2b:	bf 1d 00 00 00       	mov    $0x1d,%edi
  402a30:	e8 bb e2 ff ff       	callq  400cf0 <signal@plt>
  402a35:	be 01 00 00 00       	mov    $0x1,%esi
  402a3a:	bf 1d 00 00 00       	mov    $0x1d,%edi
  402a3f:	e8 ac e2 ff ff       	callq  400cf0 <signal@plt>
  402a44:	ba 00 00 00 00       	mov    $0x0,%edx
  402a49:	be 01 00 00 00       	mov    $0x1,%esi
  402a4e:	bf 02 00 00 00       	mov    $0x2,%edi
  402a53:	e8 a8 e3 ff ff       	callq  400e00 <socket@plt>
  402a58:	85 c0                	test   %eax,%eax
  402a5a:	0f 88 83 00 00 00    	js     402ae3 <init_driver+0xd5>
  402a60:	89 c3                	mov    %eax,%ebx
  402a62:	bf f0 30 40 00       	mov    $0x4030f0,%edi
  402a67:	e8 94 e2 ff ff       	callq  400d00 <gethostbyname@plt>
  402a6c:	48 85 c0             	test   %rax,%rax
  402a6f:	0f 84 ba 00 00 00    	je     402b2f <init_driver+0x121>
  402a75:	48 c7 44 24 02 00 00 	movq   $0x0,0x2(%rsp)
  402a7c:	00 00 
  402a7e:	c7 44 24 0a 00 00 00 	movl   $0x0,0xa(%rsp)
  402a85:	00 
  402a86:	66 c7 44 24 0e 00 00 	movw   $0x0,0xe(%rsp)
  402a8d:	66 c7 04 24 02 00    	movw   $0x2,(%rsp)
  402a93:	48 63 50 14          	movslq 0x14(%rax),%rdx
  402a97:	48 8b 40 18          	mov    0x18(%rax),%rax
  402a9b:	48 8d 7c 24 04       	lea    0x4(%rsp),%rdi
  402aa0:	48 8b 30             	mov    (%rax),%rsi
  402aa3:	e8 c8 e2 ff ff       	callq  400d70 <memmove@plt>
  402aa8:	66 c7 44 24 02 3c 9a 	movw   $0x9a3c,0x2(%rsp)
  402aaf:	ba 10 00 00 00       	mov    $0x10,%edx
  402ab4:	48 89 e6             	mov    %rsp,%rsi
  402ab7:	89 df                	mov    %ebx,%edi
  402ab9:	e8 22 e3 ff ff       	callq  400de0 <connect@plt>
  402abe:	85 c0                	test   %eax,%eax
  402ac0:	0f 88 d1 00 00 00    	js     402b97 <init_driver+0x189>
  402ac6:	89 df                	mov    %ebx,%edi
  402ac8:	e8 03 e2 ff ff       	callq  400cd0 <close@plt>
  402acd:	66 c7 45 00 4f 4b    	movw   $0x4b4f,0x0(%rbp)
  402ad3:	c6 45 02 00          	movb   $0x0,0x2(%rbp)
  402ad7:	b8 00 00 00 00       	mov    $0x0,%eax
  402adc:	48 83 c4 18          	add    $0x18,%rsp
  402ae0:	5b                   	pop    %rbx
  402ae1:	5d                   	pop    %rbp
  402ae2:	c3                   	retq   
  402ae3:	48 b8 45 72 72 6f 72 	movabs $0x43203a726f727245,%rax
  402aea:	3a 20 43 
  402aed:	48 ba 6c 69 65 6e 74 	movabs $0x6e7520746e65696c,%rdx
  402af4:	20 75 6e 
  402af7:	48 89 45 00          	mov    %rax,0x0(%rbp)
  402afb:	48 89 55 08          	mov    %rdx,0x8(%rbp)
  402aff:	48 b8 61 62 6c 65 20 	movabs $0x206f7420656c6261,%rax
  402b06:	74 6f 20 
  402b09:	48 ba 63 72 65 61 74 	movabs $0x7320657461657263,%rdx
  402b10:	65 20 73 
  402b13:	48 89 45 10          	mov    %rax,0x10(%rbp)
  402b17:	48 89 55 18          	mov    %rdx,0x18(%rbp)
  402b1b:	c7 45 20 6f 63 6b 65 	movl   $0x656b636f,0x20(%rbp)
  402b22:	66 c7 45 24 74 00    	movw   $0x74,0x24(%rbp)
  402b28:	b8 ff ff ff ff       	mov    $0xffffffff,%eax
  402b2d:	eb ad                	jmp    402adc <init_driver+0xce>
  402b2f:	48 b8 45 72 72 6f 72 	movabs $0x44203a726f727245,%rax
  402b36:	3a 20 44 
  402b39:	48 ba 4e 53 20 69 73 	movabs $0x6e7520736920534e,%rdx
  402b40:	20 75 6e 
  402b43:	48 89 45 00          	mov    %rax,0x0(%rbp)
  402b47:	48 89 55 08          	mov    %rdx,0x8(%rbp)
  402b4b:	48 b8 61 62 6c 65 20 	movabs $0x206f7420656c6261,%rax
  402b52:	74 6f 20 
  402b55:	48 ba 72 65 73 6f 6c 	movabs $0x2065766c6f736572,%rdx
  402b5c:	76 65 20 
  402b5f:	48 89 45 10          	mov    %rax,0x10(%rbp)
  402b63:	48 89 55 18          	mov    %rdx,0x18(%rbp)
  402b67:	48 b8 73 65 72 76 65 	movabs $0x6120726576726573,%rax
  402b6e:	72 20 61 
  402b71:	48 89 45 20          	mov    %rax,0x20(%rbp)
  402b75:	c7 45 28 64 64 72 65 	movl   $0x65726464,0x28(%rbp)
  402b7c:	66 c7 45 2c 73 73    	movw   $0x7373,0x2c(%rbp)
  402b82:	c6 45 2e 00          	movb   $0x0,0x2e(%rbp)
  402b86:	89 df                	mov    %ebx,%edi
  402b88:	e8 43 e1 ff ff       	callq  400cd0 <close@plt>
  402b8d:	b8 ff ff ff ff       	mov    $0xffffffff,%eax
  402b92:	e9 45 ff ff ff       	jmpq   402adc <init_driver+0xce>
  402b97:	48 b8 45 72 72 6f 72 	movabs $0x55203a726f727245,%rax
  402b9e:	3a 20 55 
  402ba1:	48 ba 6e 61 62 6c 65 	movabs $0x6f7420656c62616e,%rdx
  402ba8:	20 74 6f 
  402bab:	48 89 45 00          	mov    %rax,0x0(%rbp)
  402baf:	48 89 55 08          	mov    %rdx,0x8(%rbp)
  402bb3:	48 b8 20 63 6f 6e 6e 	movabs $0x7463656e6e6f6320,%rax
  402bba:	65 63 74 
  402bbd:	48 ba 20 74 6f 20 73 	movabs $0x76726573206f7420,%rdx
  402bc4:	65 72 76 
  402bc7:	48 89 45 10          	mov    %rax,0x10(%rbp)
  402bcb:	48 89 55 18          	mov    %rdx,0x18(%rbp)
  402bcf:	66 c7 45 20 65 72    	movw   $0x7265,0x20(%rbp)
  402bd5:	c6 45 22 00          	movb   $0x0,0x22(%rbp)
  402bd9:	89 df                	mov    %ebx,%edi
  402bdb:	e8 f0 e0 ff ff       	callq  400cd0 <close@plt>
  402be0:	b8 ff ff ff ff       	mov    $0xffffffff,%eax
  402be5:	e9 f2 fe ff ff       	jmpq   402adc <init_driver+0xce>

0000000000402bea <driver_post>:
  402bea:	53                   	push   %rbx
  402beb:	4c 89 cb             	mov    %r9,%rbx
  402bee:	45 85 c0             	test   %r8d,%r8d
  402bf1:	75 18                	jne    402c0b <driver_post+0x21>
  402bf3:	48 85 ff             	test   %rdi,%rdi
  402bf6:	74 05                	je     402bfd <driver_post+0x13>
  402bf8:	80 3f 00             	cmpb   $0x0,(%rdi)
  402bfb:	75 30                	jne    402c2d <driver_post+0x43>
  402bfd:	66 c7 03 4f 4b       	movw   $0x4b4f,(%rbx)
  402c02:	c6 43 02 00          	movb   $0x0,0x2(%rbx)
  402c06:	44 89 c0             	mov    %r8d,%eax
  402c09:	5b                   	pop    %rbx
  402c0a:	c3                   	retq   
  402c0b:	48 89 ce             	mov    %rcx,%rsi
  402c0e:	bf 1c 37 40 00       	mov    $0x40371c,%edi
  402c13:	b8 00 00 00 00       	mov    $0x0,%eax
  402c18:	e8 83 e0 ff ff       	callq  400ca0 <printf@plt>
  402c1d:	66 c7 03 4f 4b       	movw   $0x4b4f,(%rbx)
  402c22:	c6 43 02 00          	movb   $0x0,0x2(%rbx)
  402c26:	b8 00 00 00 00       	mov    $0x0,%eax
  402c2b:	eb dc                	jmp    402c09 <driver_post+0x1f>
  402c2d:	48 83 ec 08          	sub    $0x8,%rsp
  402c31:	41 51                	push   %r9
  402c33:	49 89 c9             	mov    %rcx,%r9
  402c36:	49 89 d0             	mov    %rdx,%r8
  402c39:	48 89 f9             	mov    %rdi,%rcx
  402c3c:	48 89 f2             	mov    %rsi,%rdx
  402c3f:	be 9a 3c 00 00       	mov    $0x3c9a,%esi
  402c44:	bf f0 30 40 00       	mov    $0x4030f0,%edi
  402c49:	e8 57 f5 ff ff       	callq  4021a5 <submitr>
  402c4e:	48 83 c4 10          	add    $0x10,%rsp
  402c52:	eb b5                	jmp    402c09 <driver_post+0x1f>

0000000000402c54 <check>:
  402c54:	b8 00 00 00 00       	mov    $0x0,%eax
  402c59:	89 fa                	mov    %edi,%edx
  402c5b:	c1 ea 1c             	shr    $0x1c,%edx
  402c5e:	74 29                	je     402c89 <check+0x35>
  402c60:	40 80 ff 0a          	cmp    $0xa,%dil
  402c64:	74 18                	je     402c7e <check+0x2a>
  402c66:	89 f8                	mov    %edi,%eax
  402c68:	0f b6 c4             	movzbl %ah,%eax
  402c6b:	83 f8 0a             	cmp    $0xa,%eax
  402c6e:	74 14                	je     402c84 <check+0x30>
  402c70:	c1 ef 10             	shr    $0x10,%edi
  402c73:	40 80 ff 0a          	cmp    $0xa,%dil
  402c77:	0f 95 c0             	setne  %al
  402c7a:	0f b6 c0             	movzbl %al,%eax
  402c7d:	c3                   	retq   
  402c7e:	b8 00 00 00 00       	mov    $0x0,%eax
  402c83:	c3                   	retq   
  402c84:	b8 00 00 00 00       	mov    $0x0,%eax
  402c89:	c3                   	retq   

0000000000402c8a <gencookie>:
  402c8a:	53                   	push   %rbx
  402c8b:	83 c7 01             	add    $0x1,%edi
  402c8e:	e8 ad df ff ff       	callq  400c40 <srandom@plt>
  402c93:	e8 a8 e0 ff ff       	callq  400d40 <random@plt>
  402c98:	89 c3                	mov    %eax,%ebx
  402c9a:	89 c7                	mov    %eax,%edi
  402c9c:	e8 b3 ff ff ff       	callq  402c54 <check>
  402ca1:	85 c0                	test   %eax,%eax
  402ca3:	74 ee                	je     402c93 <gencookie+0x9>
  402ca5:	89 d8                	mov    %ebx,%eax
  402ca7:	5b                   	pop    %rbx
  402ca8:	c3                   	retq   
  402ca9:	0f 1f 80 00 00 00 00 	nopl   0x0(%rax)

0000000000402cb0 <__libc_csu_init>:
  402cb0:	f3 0f 1e fa          	endbr64 
  402cb4:	41 57                	push   %r15
  402cb6:	49 89 d7             	mov    %rdx,%r15
  402cb9:	41 56                	push   %r14
  402cbb:	49 89 f6             	mov    %rsi,%r14
  402cbe:	41 55                	push   %r13
  402cc0:	41 89 fd             	mov    %edi,%r13d
  402cc3:	41 54                	push   %r12
  402cc5:	4c 8d 25 34 21 20 00 	lea    0x202134(%rip),%r12        # 604e00 <__frame_dummy_init_array_entry>
  402ccc:	55                   	push   %rbp
  402ccd:	48 8d 2d 34 21 20 00 	lea    0x202134(%rip),%rbp        # 604e08 <__init_array_end>
  402cd4:	53                   	push   %rbx
  402cd5:	4c 29 e5             	sub    %r12,%rbp
  402cd8:	48 83 ec 08          	sub    $0x8,%rsp
  402cdc:	e8 0f df ff ff       	callq  400bf0 <_init>
  402ce1:	48 c1 fd 03          	sar    $0x3,%rbp
  402ce5:	74 1f                	je     402d06 <__libc_csu_init+0x56>
  402ce7:	31 db                	xor    %ebx,%ebx
  402ce9:	0f 1f 80 00 00 00 00 	nopl   0x0(%rax)
  402cf0:	4c 89 fa             	mov    %r15,%rdx
  402cf3:	4c 89 f6             	mov    %r14,%rsi
  402cf6:	44 89 ef             	mov    %r13d,%edi
  402cf9:	41 ff 14 dc          	callq  *(%r12,%rbx,8)
  402cfd:	48 83 c3 01          	add    $0x1,%rbx
  402d01:	48 39 dd             	cmp    %rbx,%rbp
  402d04:	75 ea                	jne    402cf0 <__libc_csu_init+0x40>
  402d06:	48 83 c4 08          	add    $0x8,%rsp
  402d0a:	5b                   	pop    %rbx
  402d0b:	5d                   	pop    %rbp
  402d0c:	41 5c                	pop    %r12
  402d0e:	41 5d                	pop    %r13
  402d10:	41 5e                	pop    %r14
  402d12:	41 5f                	pop    %r15
  402d14:	c3                   	retq   

0000000000402d15 <.annobin___libc_csu_fini.start>:
  402d15:	66 66 2e 0f 1f 84 00 	data16 nopw %cs:0x0(%rax,%rax,1)
  402d1c:	00 00 00 00 

0000000000402d20 <__libc_csu_fini>:
  402d20:	f3 0f 1e fa          	endbr64 
  402d24:	c3                   	retq   

Disassembly of section .fini:

0000000000402d28 <_fini>:
  402d28:	f3 0f 1e fa          	endbr64 
  402d2c:	48 83 ec 08          	sub    $0x8,%rsp
  402d30:	48 83 c4 08          	add    $0x8,%rsp
  402d34:	c3                   	retq   
